# SymbolsHelper-Confirmed: 3.3.3a amd64 i386
libcigicl.so.1 libcigicl1 #MINVER#
 _Z9CigiCopy8PvPKv@Base 3.3.3a
 _Z9CigiSwap2PvPKv@Base 3.3.3a
 _Z9CigiSwap4PvPKv@Base 3.3.3a
 _Z9CigiSwap8PvPKv@Base 3.3.3a
 _ZN11CigiBaseSOF7GetCnvtER13CigiVersionIDRN16CigiCnvtInfoType18CigiCnvtInfoStructE@Base 3.3.3a
 _ZN11CigiBaseSOF9SetIGModeENS_9IGModeGrpEb@Base 3.3.3a
 _ZN11CigiBaseSOFC1Ev@Base 3.3.3a
 _ZN11CigiBaseSOFC2Ev@Base 3.3.3a
 _ZN11CigiBaseSOFD0Ev@Base 3.3.3a
 _ZN11CigiBaseSOFD1Ev@Base 3.3.3a
 _ZN11CigiBaseSOFD2Ev@Base 3.3.3a
 _ZN11CigiIGMsgV217GetTruePacketSizeER24CigiBaseVariableSizePckt@Base 3.3.3a
 _ZN11CigiIGMsgV26SetMsgEPKcb@Base 3.3.3a
 _ZN11CigiIGMsgV26UnpackEPhbPv@Base 3.3.3a
 _ZN11CigiIGMsgV2C1Ev@Base 3.3.3a
 _ZN11CigiIGMsgV2C2Ev@Base 3.3.3a
 _ZN11CigiIGMsgV2D0Ev@Base 3.3.3a
 _ZN11CigiIGMsgV2D1Ev@Base 3.3.3a
 _ZN11CigiIGMsgV2D2Ev@Base 3.3.3a
 _ZN11CigiIGMsgV317GetTruePacketSizeER24CigiBaseVariableSizePckt@Base 3.3.3a
 _ZN11CigiIGMsgV36SetMsgEPKcb@Base 3.3.3a
 _ZN11CigiIGMsgV36UnpackEPhbPv@Base 3.3.3a
 _ZN11CigiIGMsgV3C1Ev@Base 3.3.3a
 _ZN11CigiIGMsgV3C2Ev@Base 3.3.3a
 _ZN11CigiIGMsgV3D0Ev@Base 3.3.3a
 _ZN11CigiIGMsgV3D1Ev@Base 3.3.3a
 _ZN11CigiIGMsgV3D2Ev@Base 3.3.3a
 _ZN11CigiMessage12CreateBufferEii@Base 3.3.3a
 _ZN11CigiMessageC1Ev@Base 3.3.3a
 _ZN11CigiMessageC2Ev@Base 3.3.3a
 _ZN11CigiMessageD0Ev@Base 3.3.3a
 _ZN11CigiMessageD1Ev@Base 3.3.3a
 _ZN11CigiMessageD2Ev@Base 3.3.3a
 _ZN11CigiSOFV3_212SetTimeStampEjb@Base 3.3.3a
 _ZN11CigiSOFV3_216SetEarthRefModelEN11CigiBaseSOF16EarthRefModelGrpEb@Base 3.3.3a
 _ZN11CigiSOFV3_26UnpackEPhbPv@Base 3.3.3a
 _ZN11CigiSOFV3_2C1Ev@Base 3.3.3a
 _ZN11CigiSOFV3_2C2Ev@Base 3.3.3a
 _ZN11CigiSOFV3_2D0Ev@Base 3.3.3a
 _ZN11CigiSOFV3_2D1Ev@Base 3.3.3a
 _ZN11CigiSOFV3_2D2Ev@Base 3.3.3a
 _ZN11CigiSessionC1EiiiiNS_15SessionTypeEnumE@Base 3.3.3a
 _ZN11CigiSessionC2EiiiiNS_15SessionTypeEnumE@Base 3.3.3a
 _ZN11CigiSessionD0Ev@Base 3.3.3a
 _ZN11CigiSessionD1Ev@Base 3.3.3a
 _ZN11CigiSessionD2Ev@Base 3.3.3a
 _ZN12CigiHatReqV16UnpackEPhbPv@Base 3.3.3a
 _ZN12CigiHatReqV17GetCnvtER13CigiVersionIDRN16CigiCnvtInfoType18CigiCnvtInfoStructE@Base 3.3.3a
 _ZN12CigiHatReqV1C1Ev@Base 3.3.3a
 _ZN12CigiHatReqV1C2Ev@Base 3.3.3a
 _ZN12CigiHatReqV1D0Ev@Base 3.3.3a
 _ZN12CigiHatReqV1D1Ev@Base 3.3.3a
 _ZN12CigiHatReqV1D2Ev@Base 3.3.3a
 _ZN12CigiHatReqV26UnpackEPhbPv@Base 3.3.3a
 _ZN12CigiHatReqV27GetCnvtER13CigiVersionIDRN16CigiCnvtInfoType18CigiCnvtInfoStructE@Base 3.3.3a
 _ZN12CigiHatReqV2C1Ev@Base 3.3.3a
 _ZN12CigiHatReqV2C2Ev@Base 3.3.3a
 _ZN12CigiHatReqV2D0Ev@Base 3.3.3a
 _ZN12CigiHatReqV2D1Ev@Base 3.3.3a
 _ZN12CigiHatReqV2D2Ev@Base 3.3.3a
 _ZN12CigiHotReqV26UnpackEPhbPv@Base 3.3.3a
 _ZN12CigiHotReqV27GetCnvtER13CigiVersionIDRN16CigiCnvtInfoType18CigiCnvtInfoStructE@Base 3.3.3a
 _ZN12CigiHotReqV2C1Ev@Base 3.3.3a
 _ZN12CigiHotReqV2C2Ev@Base 3.3.3a
 _ZN12CigiHotReqV2D0Ev@Base 3.3.3a
 _ZN12CigiHotReqV2D1Ev@Base 3.3.3a
 _ZN12CigiHotReqV2D2Ev@Base 3.3.3a
 _ZN12CigiIGCtrlV112SetTimeStampEjb@Base 3.3.3a
 _ZN12CigiIGCtrlV116SetTrackDeviceEnEN14CigiBaseIGCtrl16TrackDeviceEnGrpEb@Base 3.3.3a
 _ZN12CigiIGCtrlV16UnpackEPhbPv@Base 3.3.3a
 _ZN12CigiIGCtrlV1C1Ev@Base 3.3.3a
 _ZN12CigiIGCtrlV1C2Ev@Base 3.3.3a
 _ZN12CigiIGCtrlV1D0Ev@Base 3.3.3a
 _ZN12CigiIGCtrlV1D1Ev@Base 3.3.3a
 _ZN12CigiIGCtrlV1D2Ev@Base 3.3.3a
 _ZN12CigiIGCtrlV212SetTimeStampEfb@Base 3.3.3a
 _ZN12CigiIGCtrlV216SetTrackDeviceEnEN14CigiBaseIGCtrl16TrackDeviceEnGrpEb@Base 3.3.3a
 _ZN12CigiIGCtrlV26UnpackEPhbPv@Base 3.3.3a
 _ZN12CigiIGCtrlV2C1Ev@Base 3.3.3a
 _ZN12CigiIGCtrlV2C2Ev@Base 3.3.3a
 _ZN12CigiIGCtrlV2D0Ev@Base 3.3.3a
 _ZN12CigiIGCtrlV2D1Ev@Base 3.3.3a
 _ZN12CigiIGCtrlV2D2Ev@Base 3.3.3a
 _ZN12CigiIGCtrlV312SetTimeStampEjb@Base 3.3.3a
 _ZN12CigiIGCtrlV36UnpackEPhbPv@Base 3.3.3a
 _ZN12CigiIGCtrlV3C1Ev@Base 3.3.3a
 _ZN12CigiIGCtrlV3C2Ev@Base 3.3.3a
 _ZN12CigiIGCtrlV3D0Ev@Base 3.3.3a
 _ZN12CigiIGCtrlV3D1Ev@Base 3.3.3a
 _ZN12CigiIGCtrlV3D2Ev@Base 3.3.3a
 _ZN13CigiBaseIGMsg7GetCnvtER13CigiVersionIDRN16CigiCnvtInfoType18CigiCnvtInfoStructE@Base 3.3.3a
 (optional=gcc-4.8)_ZN13CigiBaseIGMsgD0Ev@Base 3.3.3a
 (optional=gcc-4.8)_ZN13CigiBaseIGMsgD1Ev@Base 3.3.3a
 (optional=gcc-4.8)_ZN13CigiBaseIGMsgD2Ev@Base 3.3.3a
 _ZN13CigiEnvCtrlV110SetWindDirEfb@Base 3.3.3a
 _ZN13CigiEnvCtrlV111SetHumidityEhb@Base 3.3.3a
 _ZN13CigiEnvCtrlV113SetVisibilityEfb@Base 3.3.3a
 _ZN13CigiEnvCtrlV114SetHorizWindSpEfb@Base 3.3.3a
 _ZN13CigiEnvCtrlV16SetDayEhb@Base 3.3.3a
 _ZN13CigiEnvCtrlV16UnpackEPhbPv@Base 3.3.3a
 _ZN13CigiEnvCtrlV17SetHourEhb@Base 3.3.3a
 _ZN13CigiEnvCtrlV18SetMonthEhb@Base 3.3.3a
 _ZN13CigiEnvCtrlV19SetMinuteEhb@Base 3.3.3a
 _ZN13CigiEnvCtrlV1C1Ev@Base 3.3.3a
 _ZN13CigiEnvCtrlV1C2Ev@Base 3.3.3a
 _ZN13CigiEnvCtrlV1D0Ev@Base 3.3.3a
 _ZN13CigiEnvCtrlV1D1Ev@Base 3.3.3a
 _ZN13CigiEnvCtrlV1D2Ev@Base 3.3.3a
 _ZN13CigiEnvCtrlV210SetAerosolEfb@Base 3.3.3a
 _ZN13CigiEnvCtrlV210SetWindDirEfb@Base 3.3.3a
 _ZN13CigiEnvCtrlV211SetHumidityEhb@Base 3.3.3a
 _ZN13CigiEnvCtrlV212SetBaroPressEfb@Base 3.3.3a
 _ZN13CigiEnvCtrlV213SetVisibilityEfb@Base 3.3.3a
 _ZN13CigiEnvCtrlV214SetHorizWindSpEfb@Base 3.3.3a
 _ZN13CigiEnvCtrlV26SetDayEhb@Base 3.3.3a
 _ZN13CigiEnvCtrlV26UnpackEPhbPv@Base 3.3.3a
 _ZN13CigiEnvCtrlV27SetHourEhb@Base 3.3.3a
 _ZN13CigiEnvCtrlV28SetMonthEhb@Base 3.3.3a
 _ZN13CigiEnvCtrlV29SetMinuteEhb@Base 3.3.3a
 _ZN13CigiEnvCtrlV2C1Ev@Base 3.3.3a
 _ZN13CigiEnvCtrlV2C2Ev@Base 3.3.3a
 _ZN13CigiEnvCtrlV2D0Ev@Base 3.3.3a
 _ZN13CigiEnvCtrlV2D1Ev@Base 3.3.3a
 _ZN13CigiEnvCtrlV2D2Ev@Base 3.3.3a
 _ZN13CigiExceptionD0Ev@Base 3.3.3a
 _ZN13CigiExceptionD1Ev@Base 3.3.3a
 _ZN13CigiExceptionD2Ev@Base 3.3.3a
 _ZN13CigiHatRespV16UnpackEPhbPv@Base 3.3.3a
 _ZN13CigiHatRespV17GetCnvtER13CigiVersionIDRN16CigiCnvtInfoType18CigiCnvtInfoStructE@Base 3.3.3a
 _ZN13CigiHatRespV1C1Ev@Base 3.3.3a
 _ZN13CigiHatRespV1C2Ev@Base 3.3.3a
 _ZN13CigiHatRespV1D0Ev@Base 3.3.3a
 _ZN13CigiHatRespV1D1Ev@Base 3.3.3a
 _ZN13CigiHatRespV1D2Ev@Base 3.3.3a
 _ZN13CigiHatRespV26UnpackEPhbPv@Base 3.3.3a
 _ZN13CigiHatRespV27GetCnvtER13CigiVersionIDRN16CigiCnvtInfoType18CigiCnvtInfoStructE@Base 3.3.3a
 _ZN13CigiHatRespV2C1Ev@Base 3.3.3a
 _ZN13CigiHatRespV2C2Ev@Base 3.3.3a
 _ZN13CigiHatRespV2D0Ev@Base 3.3.3a
 _ZN13CigiHatRespV2D1Ev@Base 3.3.3a
 _ZN13CigiHatRespV2D2Ev@Base 3.3.3a
 _ZN13CigiHotRespV26UnpackEPhbPv@Base 3.3.3a
 _ZN13CigiHotRespV27GetCnvtER13CigiVersionIDRN16CigiCnvtInfoType18CigiCnvtInfoStructE@Base 3.3.3a
 _ZN13CigiHotRespV2C1Ev@Base 3.3.3a
 _ZN13CigiHotRespV2C2Ev@Base 3.3.3a
 _ZN13CigiHotRespV2D0Ev@Base 3.3.3a
 _ZN13CigiHotRespV2D1Ev@Base 3.3.3a
 _ZN13CigiHotRespV2D2Ev@Base 3.3.3a
 _ZN13CigiIGSessionC1Eiiii@Base 3.3.3a
 _ZN13CigiIGSessionC2Eiiii@Base 3.3.3a
 _ZN13CigiIGSessionD0Ev@Base 3.3.3a
 _ZN13CigiIGSessionD1Ev@Base 3.3.3a
 _ZN13CigiIGSessionD2Ev@Base 3.3.3a
 _ZN13CigiLosRespV16UnpackEPhbPv@Base 3.3.3a
 _ZN13CigiLosRespV17GetCnvtER13CigiVersionIDRN16CigiCnvtInfoType18CigiCnvtInfoStructE@Base 3.3.3a
 _ZN13CigiLosRespV1C1Ev@Base 3.3.3a
 _ZN13CigiLosRespV1C2Ev@Base 3.3.3a
 _ZN13CigiLosRespV1D0Ev@Base 3.3.3a
 _ZN13CigiLosRespV1D1Ev@Base 3.3.3a
 _ZN13CigiLosRespV1D2Ev@Base 3.3.3a
 _ZN13CigiLosRespV26UnpackEPhbPv@Base 3.3.3a
 _ZN13CigiLosRespV27GetCnvtER13CigiVersionIDRN16CigiCnvtInfoType18CigiCnvtInfoStructE@Base 3.3.3a
 _ZN13CigiLosRespV2C1Ev@Base 3.3.3a
 _ZN13CigiLosRespV2C2Ev@Base 3.3.3a
 _ZN13CigiLosRespV2D0Ev@Base 3.3.3a
 _ZN13CigiLosRespV2D1Ev@Base 3.3.3a
 _ZN13CigiLosRespV2D2Ev@Base 3.3.3a
 _ZN13CigiLosRespV36UnpackEPhbPv@Base 3.3.3a
 _ZN13CigiLosRespV37GetCnvtER13CigiVersionIDRN16CigiCnvtInfoType18CigiCnvtInfoStructE@Base 3.3.3a
 _ZN13CigiLosRespV3C1Ev@Base 3.3.3a
 _ZN13CigiLosRespV3C2Ev@Base 3.3.3a
 _ZN13CigiLosRespV3D0Ev@Base 3.3.3a
 _ZN13CigiLosRespV3D1Ev@Base 3.3.3a
 _ZN13CigiLosRespV3D2Ev@Base 3.3.3a
 _ZN13CigiVersionIDD0Ev@Base 3.3.3a
 _ZN13CigiVersionIDD1Ev@Base 3.3.3a
 _ZN13CigiVersionIDD2Ev@Base 3.3.3a
 _ZN13CigiViewDefV110SetGroupIDEhb@Base 3.3.3a
 _ZN13CigiViewDefV16UnpackEPhbPv@Base 3.3.3a
 _ZN13CigiViewDefV19SetViewIDEhb@Base 3.3.3a
 _ZN13CigiViewDefV1C1Ev@Base 3.3.3a
 _ZN13CigiViewDefV1C2Ev@Base 3.3.3a
 _ZN13CigiViewDefV1D0Ev@Base 3.3.3a
 _ZN13CigiViewDefV1D1Ev@Base 3.3.3a
 _ZN13CigiViewDefV1D2Ev@Base 3.3.3a
 _ZN13CigiViewDefV210SetGroupIDEhb@Base 3.3.3a
 _ZN13CigiViewDefV26UnpackEPhbPv@Base 3.3.3a
 _ZN13CigiViewDefV29SetViewIDEhb@Base 3.3.3a
 _ZN13CigiViewDefV2C1Ev@Base 3.3.3a
 _ZN13CigiViewDefV2C2Ev@Base 3.3.3a
 _ZN13CigiViewDefV2D0Ev@Base 3.3.3a
 _ZN13CigiViewDefV2D1Ev@Base 3.3.3a
 _ZN13CigiViewDefV2D2Ev@Base 3.3.3a
 _ZN13CigiViewDefV317SetProjectionTypeEN15CigiBaseViewDef17ProjectionTypeGrpEb@Base 3.3.3a
 _ZN13CigiViewDefV36UnpackEPhbPv@Base 3.3.3a
 _ZN13CigiViewDefV3C1Ev@Base 3.3.3a
 _ZN13CigiViewDefV3C2Ev@Base 3.3.3a
 _ZN13CigiViewDefV3D0Ev@Base 3.3.3a
 _ZN13CigiViewDefV3D1Ev@Base 3.3.3a
 _ZN13CigiViewDefV3D2Ev@Base 3.3.3a
 _ZN14CigiBaseIGCtrl13SetDatabaseIDEab@Base 3.3.3a
 _ZN14CigiBaseIGCtrl7GetCnvtER13CigiVersionIDRN16CigiCnvtInfoType18CigiCnvtInfoStructE@Base 3.3.3a
 _ZN14CigiBaseIGCtrl9SetIGModeENS_9IGModeGrpEb@Base 3.3.3a
 _ZN14CigiBaseIGCtrlC1Ev@Base 3.3.3a
 _ZN14CigiBaseIGCtrlC2Ev@Base 3.3.3a
 _ZN14CigiBaseIGCtrlD0Ev@Base 3.3.3a
 _ZN14CigiBaseIGCtrlD1Ev@Base 3.3.3a
 _ZN14CigiBaseIGCtrlD2Ev@Base 3.3.3a
 _ZN14CigiBasePacket7GetCnvtER13CigiVersionIDRN16CigiCnvtInfoType18CigiCnvtInfoStructE@Base 3.3.3a
 (optional=gcc-4.8)_ZN14CigiBasePacketD0Ev@Base 3.3.3a
 (optional=gcc-4.8)_ZN14CigiBasePacketD1Ev@Base 3.3.3a
 (optional=gcc-4.8)_ZN14CigiBasePacketD2Ev@Base 3.3.3a
 _ZN14CigiCompCtrlV111SetCompDataEajN16CigiBaseCompCtrl7BytePosEb@Base 3.3.3a
 _ZN14CigiCompCtrlV111SetCompDataEdjb@Base 3.3.3a
 _ZN14CigiCompCtrlV111SetCompDataEfjb@Base 3.3.3a
 _ZN14CigiCompCtrlV111SetCompDataEhjN16CigiBaseCompCtrl7BytePosEb@Base 3.3.3a
 _ZN14CigiCompCtrlV111SetCompDataEijb@Base 3.3.3a
 _ZN14CigiCompCtrlV111SetCompDataEjjb@Base 3.3.3a
 _ZN14CigiCompCtrlV111SetCompDataEsjN16CigiBaseCompCtrl11HalfWordPosEb@Base 3.3.3a
 _ZN14CigiCompCtrlV111SetCompDataEtjN16CigiBaseCompCtrl11HalfWordPosEb@Base 3.3.3a
 (subst)_ZN14CigiCompCtrlV111SetCompDataE{uint64_t}jb@Base 3.3.3a
 _ZN14CigiCompCtrlV112SetCompAssocEN16CigiBaseCompCtrl12CompAssocGrpEb@Base 3.3.3a
 _ZN14CigiCompCtrlV114CompClassV1xV3E@Base 3.3.3a
 _ZN14CigiCompCtrlV114GetI64CompDataEj@Base 3.3.3a
 _ZN14CigiCompCtrlV115GetCharCompDataEjN16CigiBaseCompCtrl7BytePosE@Base 3.3.3a
 _ZN14CigiCompCtrlV115GetLongCompDataEj@Base 3.3.3a
 _ZN14CigiCompCtrlV116GetFloatCompDataEj@Base 3.3.3a
 _ZN14CigiCompCtrlV116GetShortCompDataEjN16CigiBaseCompCtrl11HalfWordPosE@Base 3.3.3a
 _ZN14CigiCompCtrlV116GetUCharCompDataEjN16CigiBaseCompCtrl7BytePosE@Base 3.3.3a
 _ZN14CigiCompCtrlV116GetULongCompDataEj@Base 3.3.3a
 _ZN14CigiCompCtrlV117GetDoubleCompDataEj@Base 3.3.3a
 _ZN14CigiCompCtrlV117GetUShortCompDataEjN16CigiBaseCompCtrl11HalfWordPosE@Base 3.3.3a
 _ZN14CigiCompCtrlV16UnpackEPhbPv@Base 3.3.3a
 _ZN14CigiCompCtrlV17GetCnvtER13CigiVersionIDRN16CigiCnvtInfoType18CigiCnvtInfoStructE@Base 3.3.3a
 _ZN14CigiCompCtrlV19SetViewIDEhb@Base 3.3.3a
 _ZN14CigiCompCtrlV1C1Ev@Base 3.3.3a
 _ZN14CigiCompCtrlV1C2Ev@Base 3.3.3a
 _ZN14CigiCompCtrlV1D0Ev@Base 3.3.3a
 _ZN14CigiCompCtrlV1D1Ev@Base 3.3.3a
 _ZN14CigiCompCtrlV1D2Ev@Base 3.3.3a
 _ZN14CigiCompCtrlV211SetCompDataEajN16CigiBaseCompCtrl7BytePosEb@Base 3.3.3a
 _ZN14CigiCompCtrlV211SetCompDataEdjb@Base 3.3.3a
 _ZN14CigiCompCtrlV211SetCompDataEfjb@Base 3.3.3a
 _ZN14CigiCompCtrlV211SetCompDataEhjN16CigiBaseCompCtrl7BytePosEb@Base 3.3.3a
 _ZN14CigiCompCtrlV211SetCompDataEijb@Base 3.3.3a
 _ZN14CigiCompCtrlV211SetCompDataEjjb@Base 3.3.3a
 _ZN14CigiCompCtrlV211SetCompDataEsjN16CigiBaseCompCtrl11HalfWordPosEb@Base 3.3.3a
 _ZN14CigiCompCtrlV211SetCompDataEtjN16CigiBaseCompCtrl11HalfWordPosEb@Base 3.3.3a
 (subst)_ZN14CigiCompCtrlV211SetCompDataE{uint64_t}jb@Base 3.3.3a
 _ZN14CigiCompCtrlV214CompClassV2xV1E@Base 3.3.3a
 _ZN14CigiCompCtrlV214CompClassV2xV3E@Base 3.3.3a
 _ZN14CigiCompCtrlV214GetI64CompDataEj@Base 3.3.3a
 _ZN14CigiCompCtrlV214SetCompClassV2EN16CigiBaseCompCtrl14CompClassV2GrpEb@Base 3.3.3a
 _ZN14CigiCompCtrlV215GetCharCompDataEjN16CigiBaseCompCtrl7BytePosE@Base 3.3.3a
 _ZN14CigiCompCtrlV215GetLongCompDataEj@Base 3.3.3a
 _ZN14CigiCompCtrlV216GetFloatCompDataEj@Base 3.3.3a
 _ZN14CigiCompCtrlV216GetShortCompDataEjN16CigiBaseCompCtrl11HalfWordPosE@Base 3.3.3a
 _ZN14CigiCompCtrlV216GetUCharCompDataEjN16CigiBaseCompCtrl7BytePosE@Base 3.3.3a
 _ZN14CigiCompCtrlV216GetULongCompDataEj@Base 3.3.3a
 _ZN14CigiCompCtrlV217GetDoubleCompDataEj@Base 3.3.3a
 _ZN14CigiCompCtrlV217GetUShortCompDataEjN16CigiBaseCompCtrl11HalfWordPosE@Base 3.3.3a
 _ZN14CigiCompCtrlV26UnpackEPhbPv@Base 3.3.3a
 _ZN14CigiCompCtrlV27GetCnvtER13CigiVersionIDRN16CigiCnvtInfoType18CigiCnvtInfoStructE@Base 3.3.3a
 _ZN14CigiCompCtrlV2C1Ev@Base 3.3.3a
 _ZN14CigiCompCtrlV2C2Ev@Base 3.3.3a
 _ZN14CigiCompCtrlV2D0Ev@Base 3.3.3a
 _ZN14CigiCompCtrlV2D1Ev@Base 3.3.3a
 _ZN14CigiCompCtrlV2D2Ev@Base 3.3.3a
 _ZN14CigiCompCtrlV311SetCompDataEajN16CigiBaseCompCtrl7BytePosEb@Base 3.3.3a
 _ZN14CigiCompCtrlV311SetCompDataEdjb@Base 3.3.3a
 _ZN14CigiCompCtrlV311SetCompDataEfjb@Base 3.3.3a
 _ZN14CigiCompCtrlV311SetCompDataEhjN16CigiBaseCompCtrl7BytePosEb@Base 3.3.3a
 _ZN14CigiCompCtrlV311SetCompDataEijb@Base 3.3.3a
 _ZN14CigiCompCtrlV311SetCompDataEjjb@Base 3.3.3a
 _ZN14CigiCompCtrlV311SetCompDataEsjN16CigiBaseCompCtrl11HalfWordPosEb@Base 3.3.3a
 _ZN14CigiCompCtrlV311SetCompDataEtjN16CigiBaseCompCtrl11HalfWordPosEb@Base 3.3.3a
 (subst)_ZN14CigiCompCtrlV311SetCompDataE{uint64_t}jb@Base 3.3.3a
 _ZN14CigiCompCtrlV314CompClassV3xV1E@Base 3.3.3a
 _ZN14CigiCompCtrlV314CompClassV3xV2E@Base 3.3.3a
 _ZN14CigiCompCtrlV314GetI64CompDataEj@Base 3.3.3a
 _ZN14CigiCompCtrlV314SetCompClassV3EN16CigiBaseCompCtrl14CompClassV3GrpEb@Base 3.3.3a
 _ZN14CigiCompCtrlV315GetCharCompDataEjN16CigiBaseCompCtrl7BytePosE@Base 3.3.3a
 _ZN14CigiCompCtrlV315GetLongCompDataEj@Base 3.3.3a
 _ZN14CigiCompCtrlV316GetFloatCompDataEj@Base 3.3.3a
 _ZN14CigiCompCtrlV316GetShortCompDataEjN16CigiBaseCompCtrl11HalfWordPosE@Base 3.3.3a
 _ZN14CigiCompCtrlV316GetUCharCompDataEjN16CigiBaseCompCtrl7BytePosE@Base 3.3.3a
 _ZN14CigiCompCtrlV316GetULongCompDataEj@Base 3.3.3a
 _ZN14CigiCompCtrlV317GetDoubleCompDataEj@Base 3.3.3a
 _ZN14CigiCompCtrlV317GetUShortCompDataEjN16CigiBaseCompCtrl11HalfWordPosE@Base 3.3.3a
 _ZN14CigiCompCtrlV36UnpackEPhbPv@Base 3.3.3a
 _ZN14CigiCompCtrlV37GetCnvtER13CigiVersionIDRN16CigiCnvtInfoType18CigiCnvtInfoStructE@Base 3.3.3a
 _ZN14CigiCompCtrlV3C1Ev@Base 3.3.3a
 _ZN14CigiCompCtrlV3C2Ev@Base 3.3.3a
 _ZN14CigiCompCtrlV3D0Ev@Base 3.3.3a
 _ZN14CigiCompCtrlV3D1Ev@Base 3.3.3a
 _ZN14CigiCompCtrlV3D2Ev@Base 3.3.3a
 _ZN14CigiIGCtrlV3_212SetTimeStampEjb@Base 3.3.3a
 _ZN14CigiIGCtrlV3_26UnpackEPhbPv@Base 3.3.3a
 _ZN14CigiIGCtrlV3_2C1Ev@Base 3.3.3a
 _ZN14CigiIGCtrlV3_2C2Ev@Base 3.3.3a
 _ZN14CigiIGCtrlV3_2D0Ev@Base 3.3.3a
 _ZN14CigiIGCtrlV3_2D1Ev@Base 3.3.3a
 _ZN14CigiIGCtrlV3_2D2Ev@Base 3.3.3a
 _ZN14CigiIGCtrlV3_312SetTimeStampEjb@Base 3.3.3a
 _ZN14CigiIGCtrlV3_36UnpackEPhbPv@Base 3.3.3a
 _ZN14CigiIGCtrlV3_3C1Ev@Base 3.3.3a
 _ZN14CigiIGCtrlV3_3C2Ev@Base 3.3.3a
 _ZN14CigiIGCtrlV3_3D0Ev@Base 3.3.3a
 _ZN14CigiIGCtrlV3_3D1Ev@Base 3.3.3a
 _ZN14CigiIGCtrlV3_3D2Ev@Base 3.3.3a
 _ZN14CigiLosXRespV311SetNormalAzEfb@Base 3.3.3a
 _ZN14CigiLosXRespV311SetNormalElEfb@Base 3.3.3a
 _ZN14CigiLosXRespV323SetIntersectionCoordSysEN15CigiBaseLosResp11LOSCoordGrpEb@Base 3.3.3a
 _ZN14CigiLosXRespV36UnpackEPhbPv@Base 3.3.3a
 _ZN14CigiLosXRespV37GetCnvtER13CigiVersionIDRN16CigiCnvtInfoType18CigiCnvtInfoStructE@Base 3.3.3a
 _ZN14CigiLosXRespV3C1Ev@Base 3.3.3a
 _ZN14CigiLosXRespV3C2Ev@Base 3.3.3a
 _ZN14CigiLosXRespV3D0Ev@Base 3.3.3a
 _ZN14CigiLosXRespV3D1Ev@Base 3.3.3a
 _ZN14CigiLosXRespV3D2Ev@Base 3.3.3a
 _ZN14CigiRateCtrlV112SetArtPartIDEab@Base 3.3.3a
 _ZN14CigiRateCtrlV16UnpackEPhbPv@Base 3.3.3a
 _ZN14CigiRateCtrlV1C1Ev@Base 3.3.3a
 _ZN14CigiRateCtrlV1C2Ev@Base 3.3.3a
 _ZN14CigiRateCtrlV1D0Ev@Base 3.3.3a
 _ZN14CigiRateCtrlV1D1Ev@Base 3.3.3a
 _ZN14CigiRateCtrlV1D2Ev@Base 3.3.3a
 _ZN14CigiRateCtrlV212SetArtPartIDEab@Base 3.3.3a
 _ZN14CigiRateCtrlV26UnpackEPhbPv@Base 3.3.3a
 _ZN14CigiRateCtrlV2C1Ev@Base 3.3.3a
 _ZN14CigiRateCtrlV2C2Ev@Base 3.3.3a
 _ZN14CigiRateCtrlV2D0Ev@Base 3.3.3a
 _ZN14CigiRateCtrlV2D1Ev@Base 3.3.3a
 _ZN14CigiRateCtrlV2D2Ev@Base 3.3.3a
 _ZN14CigiRateCtrlV312SetArtPartIDEhb@Base 3.3.3a
 _ZN14CigiRateCtrlV317SetApplyToArtPartEbb@Base 3.3.3a
 _ZN14CigiRateCtrlV36UnpackEPhbPv@Base 3.3.3a
 _ZN14CigiRateCtrlV3C1Ev@Base 3.3.3a
 _ZN14CigiRateCtrlV3C2Ev@Base 3.3.3a
 _ZN14CigiRateCtrlV3D0Ev@Base 3.3.3a
 _ZN14CigiRateCtrlV3D1Ev@Base 3.3.3a
 _ZN14CigiRateCtrlV3D2Ev@Base 3.3.3a
 _ZN14CigiViewCtrlV110SetGroupIDEhb@Base 3.3.3a
 _ZN14CigiViewCtrlV16UnpackEPhbPv@Base 3.3.3a
 _ZN14CigiViewCtrlV19SetViewIDEhb@Base 3.3.3a
 _ZN14CigiViewCtrlV1C1Ev@Base 3.3.3a
 _ZN14CigiViewCtrlV1C2Ev@Base 3.3.3a
 _ZN14CigiViewCtrlV1D0Ev@Base 3.3.3a
 _ZN14CigiViewCtrlV1D1Ev@Base 3.3.3a
 _ZN14CigiViewCtrlV1D2Ev@Base 3.3.3a
 _ZN14CigiViewCtrlV210SetGroupIDEhb@Base 3.3.3a
 _ZN14CigiViewCtrlV26UnpackEPhbPv@Base 3.3.3a
 _ZN14CigiViewCtrlV29SetViewIDEhb@Base 3.3.3a
 _ZN14CigiViewCtrlV2C1Ev@Base 3.3.3a
 _ZN14CigiViewCtrlV2C2Ev@Base 3.3.3a
 _ZN14CigiViewCtrlV2D0Ev@Base 3.3.3a
 _ZN14CigiViewCtrlV2D1Ev@Base 3.3.3a
 _ZN14CigiViewCtrlV2D2Ev@Base 3.3.3a
 _ZN14CigiViewCtrlV36UnpackEPhbPv@Base 3.3.3a
 _ZN14CigiViewCtrlV3C1Ev@Base 3.3.3a
 _ZN14CigiViewCtrlV3C2Ev@Base 3.3.3a
 _ZN14CigiViewCtrlV3D0Ev@Base 3.3.3a
 _ZN14CigiViewCtrlV3D1Ev@Base 3.3.3a
 _ZN14CigiViewCtrlV3D2Ev@Base 3.3.3a
 _ZN14CigiWaveCtrlV36UnpackEPhbPv@Base 3.3.3a
 _ZN14CigiWaveCtrlV3C1Ev@Base 3.3.3a
 _ZN14CigiWaveCtrlV3C2Ev@Base 3.3.3a
 _ZN14CigiWaveCtrlV3D0Ev@Base 3.3.3a
 _ZN14CigiWaveCtrlV3D1Ev@Base 3.3.3a
 _ZN14CigiWaveCtrlV3D2Ev@Base 3.3.3a
 _ZN15CigiAtmosCtrlV310SetWindDirEfb@Base 3.3.3a
 _ZN15CigiAtmosCtrlV311SetHumidityEhb@Base 3.3.3a
 _ZN15CigiAtmosCtrlV312SetBaroPressEfb@Base 3.3.3a
 _ZN15CigiAtmosCtrlV313SetVisibilityEfb@Base 3.3.3a
 _ZN15CigiAtmosCtrlV314SetHorizWindSpEfb@Base 3.3.3a
 _ZN15CigiAtmosCtrlV36UnpackEPhbPv@Base 3.3.3a
 _ZN15CigiAtmosCtrlV3C1Ev@Base 3.3.3a
 _ZN15CigiAtmosCtrlV3C2Ev@Base 3.3.3a
 _ZN15CigiAtmosCtrlV3D0Ev@Base 3.3.3a
 _ZN15CigiAtmosCtrlV3D1Ev@Base 3.3.3a
 _ZN15CigiAtmosCtrlV3D2Ev@Base 3.3.3a
 _ZN15CigiBaseEnvCtrl7GetCnvtER13CigiVersionIDRN16CigiCnvtInfoType18CigiCnvtInfoStructE@Base 3.3.3a
 _ZN15CigiBaseEnvCtrlC1Ev@Base 3.3.3a
 _ZN15CigiBaseEnvCtrlC2Ev@Base 3.3.3a
 _ZN15CigiBaseEnvCtrlD0Ev@Base 3.3.3a
 _ZN15CigiBaseEnvCtrlD1Ev@Base 3.3.3a
 _ZN15CigiBaseEnvCtrlD2Ev@Base 3.3.3a
 _ZN15CigiBaseLosResp11SetLatitudeEdb@Base 3.3.3a
 _ZN15CigiBaseLosResp12SetLongitudeEdb@Base 3.3.3a
 _ZN15CigiBaseLosRespC1Ev@Base 3.3.3a
 _ZN15CigiBaseLosRespC2Ev@Base 3.3.3a
 _ZN15CigiBaseLosRespD0Ev@Base 3.3.3a
 _ZN15CigiBaseLosRespD1Ev@Base 3.3.3a
 _ZN15CigiBaseLosRespD2Ev@Base 3.3.3a
 _ZN15CigiBaseViewDef11SetViewTypeEhb@Base 3.3.3a
 _ZN15CigiBaseViewDef13SetMirrorModeENS_13MirrorModeGrpEb@Base 3.3.3a
 _ZN15CigiBaseViewDef21SetPixelReplicateModeENS_21PixelReplicateModeGrpEb@Base 3.3.3a
 _ZN15CigiBaseViewDef7GetCnvtER13CigiVersionIDRN16CigiCnvtInfoType18CigiCnvtInfoStructE@Base 3.3.3a
 _ZN15CigiBaseViewDefC1Ev@Base 3.3.3a
 _ZN15CigiBaseViewDefC2Ev@Base 3.3.3a
 _ZN15CigiBaseViewDefD0Ev@Base 3.3.3a
 _ZN15CigiBaseViewDefD1Ev@Base 3.3.3a
 _ZN15CigiBaseViewDefD2Ev@Base 3.3.3a
 _ZN15CigiHatHotReqV310SetReqTypeEN17CigiBaseHatHotReq10ReqTypeGrpEb@Base 3.3.3a
 _ZN15CigiHatHotReqV314SetSrcCoordSysEN17CigiBaseHatHotReq11CoordSysGrpEb@Base 3.3.3a
 _ZN15CigiHatHotReqV36UnpackEPhbPv@Base 3.3.3a
 _ZN15CigiHatHotReqV37GetCnvtER13CigiVersionIDRN16CigiCnvtInfoType18CigiCnvtInfoStructE@Base 3.3.3a
 _ZN15CigiHatHotReqV3C1Ev@Base 3.3.3a
 _ZN15CigiHatHotReqV3C2Ev@Base 3.3.3a
 _ZN15CigiHatHotReqV3D0Ev@Base 3.3.3a
 _ZN15CigiHatHotReqV3D1Ev@Base 3.3.3a
 _ZN15CigiHatHotReqV3D2Ev@Base 3.3.3a
 _ZN15CigiHoldEnvCtrl6UnpackEPhbPv@Base 3.3.3a
 _ZN15CigiHoldEnvCtrlD0Ev@Base 3.3.3a
 _ZN15CigiHoldEnvCtrlD1Ev@Base 3.3.3a
 _ZN15CigiHoldEnvCtrlD2Ev@Base 3.3.3a
 _ZN15CigiHostSessionC1Eiiii@Base 3.3.3a
 _ZN15CigiHostSessionC2Eiiii@Base 3.3.3a
 _ZN15CigiHostSessionD0Ev@Base 3.3.3a
 _ZN15CigiHostSessionD1Ev@Base 3.3.3a
 _ZN15CigiHostSessionD2Ev@Base 3.3.3a
 _ZN15CigiIncomingMsg10SignalJumpEhP14CigiBasePacket@Base 3.3.3a
 _ZN15CigiIncomingMsg13GetNextPacketEv@Base 3.3.3a
 _ZN15CigiIncomingMsg13ProcessPacketEiP14CigiBasePacket@Base 3.3.3a
 _ZN15CigiIncomingMsg14GetFirstPacketEv@Base 3.3.3a
 _ZN15CigiIncomingMsg16CheckFirstPacketEPh@Base 3.3.3a
 _ZN15CigiIncomingMsg16RegisterCallBackEiPFvP14CigiBasePacketE@Base 3.3.3a
 _ZN15CigiIncomingMsg16SetReaderVersionER13CigiVersionID@Base 3.3.3a
 _ZN15CigiIncomingMsg17AdvanceCrntBufferEv@Base 3.3.3a
 _ZN15CigiIncomingMsg17GetNextBuffToLoadEv@Base 3.3.3a
 _ZN15CigiIncomingMsg18ProcessIncomingMsgEPhi@Base 3.3.3a
 _ZN15CigiIncomingMsg18RegisterUserPacketEP14CigiBasePackethbb@Base 3.3.3a
 _ZN15CigiIncomingMsg18UnregisterCallBackEiPFvP14CigiBasePacketE@Base 3.3.3a
 _ZN15CigiIncomingMsg19SetIncomingIGV1TblsEv@Base 3.3.3a
 _ZN15CigiIncomingMsg19SetIncomingIGV2TblsEv@Base 3.3.3a
 _ZN15CigiIncomingMsg19SetIncomingIGV3TblsEv@Base 3.3.3a
 _ZN15CigiIncomingMsg21SetIncomingHostV1TblsEv@Base 3.3.3a
 _ZN15CigiIncomingMsg21SetIncomingHostV2TblsEv@Base 3.3.3a
 _ZN15CigiIncomingMsg21SetIncomingHostV3TblsEv@Base 3.3.3a
 _ZN15CigiIncomingMsg22RegisterEventProcessorEiP22CigiBaseEventProcessor@Base 3.3.3a
 _ZN15CigiIncomingMsg23RegisterSignalProcessorEP24CigiBaseSignalProcessing@Base 3.3.3a
 _ZN15CigiIncomingMsg24UnregisterEventProcessorEiP22CigiBaseEventProcessor@Base 3.3.3a
 _ZN15CigiIncomingMsg25UnregisterSignalProcessorEP24CigiBaseSignalProcessing@Base 3.3.3a
 _ZN15CigiIncomingMsg9ClearTblsEb@Base 3.3.3a
 _ZN15CigiIncomingMsgC1Ev@Base 3.3.3a
 _ZN15CigiIncomingMsgC2Ev@Base 3.3.3a
 _ZN15CigiIncomingMsgD0Ev@Base 3.3.3a
 _ZN15CigiIncomingMsgD1Ev@Base 3.3.3a
 _ZN15CigiIncomingMsgD2Ev@Base 3.3.3a
 _ZN15CigiLosRespV3_26UnpackEPhbPv@Base 3.3.3a
 _ZN15CigiLosRespV3_27GetCnvtER13CigiVersionIDRN16CigiCnvtInfoType18CigiCnvtInfoStructE@Base 3.3.3a
 _ZN15CigiLosRespV3_2C1Ev@Base 3.3.3a
 _ZN15CigiLosRespV3_2C2Ev@Base 3.3.3a
 _ZN15CigiLosRespV3_2D0Ev@Base 3.3.3a
 _ZN15CigiLosRespV3_2D1Ev@Base 3.3.3a
 _ZN15CigiLosRespV3_2D2Ev@Base 3.3.3a
 _ZN15CigiLosSegReqV16UnpackEPhbPv@Base 3.3.3a
 _ZN15CigiLosSegReqV1C1Ev@Base 3.3.3a
 _ZN15CigiLosSegReqV1C2Ev@Base 3.3.3a
 _ZN15CigiLosSegReqV1D0Ev@Base 3.3.3a
 _ZN15CigiLosSegReqV1D1Ev@Base 3.3.3a
 _ZN15CigiLosSegReqV1D2Ev@Base 3.3.3a
 _ZN15CigiLosSegReqV26UnpackEPhbPv@Base 3.3.3a
 _ZN15CigiLosSegReqV2C1Ev@Base 3.3.3a
 _ZN15CigiLosSegReqV2C2Ev@Base 3.3.3a
 _ZN15CigiLosSegReqV2D0Ev@Base 3.3.3a
 _ZN15CigiLosSegReqV2D1Ev@Base 3.3.3a
 _ZN15CigiLosSegReqV2D2Ev@Base 3.3.3a
 _ZN15CigiLosSegReqV310SetReqTypeEN17CigiBaseLosSegReq10ReqTypeGrpEb@Base 3.3.3a
 _ZN15CigiLosSegReqV314SetDstCoordSysEN17CigiBaseLosSegReq11CoordSysGrpEb@Base 3.3.3a
 _ZN15CigiLosSegReqV314SetSrcCoordSysEN17CigiBaseLosSegReq11CoordSysGrpEb@Base 3.3.3a
 _ZN15CigiLosSegReqV319SetResponseCoordSysEN17CigiBaseLosSegReq11CoordSysGrpEb@Base 3.3.3a
 _ZN15CigiLosSegReqV36UnpackEPhbPv@Base 3.3.3a
 _ZN15CigiLosSegReqV3C1Ev@Base 3.3.3a
 _ZN15CigiLosSegReqV3C2Ev@Base 3.3.3a
 _ZN15CigiLosSegReqV3D0Ev@Base 3.3.3a
 _ZN15CigiLosSegReqV3D1Ev@Base 3.3.3a
 _ZN15CigiLosSegReqV3D2Ev@Base 3.3.3a
 _ZN15CigiOutgoingMsg10PackageMsgEPPhRi@Base 3.3.3a
 _ZN15CigiOutgoingMsg12GetMsgLengthEv@Base 3.3.3a
 _ZN15CigiOutgoingMsg12UpdateIGCtrlEPhS0_@Base 3.3.3a
 _ZN15CigiOutgoingMsg13AdvanceBufferEv@Base 3.3.3a
 _ZN15CigiOutgoingMsg15GetBufferStringEv@Base 3.3.3a
 _ZN15CigiOutgoingMsg15UpdateFrameCntrEPhS0_@Base 3.3.3a
 _ZN15CigiOutgoingMsg15UpdateFrameCntrEv@Base 3.3.3a
 _ZN15CigiOutgoingMsg17ClearHandlerTableEv@Base 3.3.3a
 _ZN15CigiOutgoingMsg18RegisterUserPacketEP14CigiBasePackethbb@Base 3.3.3a
 _ZN15CigiOutgoingMsg19SetOutgoingIGV1TblsEv@Base 3.3.3a
 _ZN15CigiOutgoingMsg19SetOutgoingIGV2TblsEv@Base 3.3.3a
 _ZN15CigiOutgoingMsg19SetOutgoingIGV3TblsEv@Base 3.3.3a
 _ZN15CigiOutgoingMsg21SetOutgoingHostV1TblsEv@Base 3.3.3a
 _ZN15CigiOutgoingMsg21SetOutgoingHostV2TblsEv@Base 3.3.3a
 _ZN15CigiOutgoingMsg21SetOutgoingHostV3TblsEv@Base 3.3.3a
 _ZN15CigiOutgoingMsg22SetOutgoingCigiVersionER13CigiVersionIDb@Base 3.3.3a
 _ZN15CigiOutgoingMsg23ChangeBufferCigiVersionEv@Base 3.3.3a
 _ZN15CigiOutgoingMsg25ChangeOutgoingCigiVersionER13CigiVersionID@Base 3.3.3a
 _ZN15CigiOutgoingMsg32SetMostMatureReceivedCigiVersionER13CigiVersionID@Base 3.3.3a
 _ZN15CigiOutgoingMsg5ResetEv@Base 3.3.3a
 _ZN15CigiOutgoingMsg6GetMsgERi@Base 3.3.3a
 _ZN15CigiOutgoingMsg7FreeMsgEv@Base 3.3.3a
 _ZN15CigiOutgoingMsg7LockMsgEv@Base 3.3.3a
 _ZN15CigiOutgoingMsg7PackObjER14CigiBasePacketS1_Pv@Base 3.3.3a
 _ZN15CigiOutgoingMsg9GetBufferEv@Base 3.3.3a
 _ZN15CigiOutgoingMsg9UnlockMsgEv@Base 3.3.3a
 _ZN15CigiOutgoingMsgC1Ev@Base 3.3.3a
 _ZN15CigiOutgoingMsgC2Ev@Base 3.3.3a
 _ZN15CigiOutgoingMsgD0Ev@Base 3.3.3a
 _ZN15CigiOutgoingMsgD1Ev@Base 3.3.3a
 _ZN15CigiOutgoingMsgD2Ev@Base 3.3.3a
 _ZN15CigiOutgoingMsglsER11CigiBaseSOF@Base 3.3.3a
 _ZN15CigiOutgoingMsglsER14CigiBaseIGCtrl@Base 3.3.3a
 _ZN15CigiOutgoingMsglsER14CigiBasePacket@Base 3.3.3a
 _ZN15CigiOutgoingMsglsER15CigiBaseEnvCtrl@Base 3.3.3a
 _ZN15CigiOutgoingMsglsER18CigiBaseEntityCtrl@Base 3.3.3a
 _ZN15CigiOutgoingMsglsER24CigiBaseVariableSizePckt@Base 3.3.3a
 (optional=gcc-4.8)_ZN16CigiBaseCompCtrlD0Ev@Base 3.3.3a
 (optional=gcc-4.8)_ZN16CigiBaseCompCtrlD1Ev@Base 3.3.3a
 (optional=gcc-4.8)_ZN16CigiBaseCompCtrlD2Ev@Base 3.3.3a
 _ZN16CigiBaseRateCtrl7GetCnvtER13CigiVersionIDRN16CigiCnvtInfoType18CigiCnvtInfoStructE@Base 3.3.3a
 (optional=gcc-4.8)_ZN16CigiBaseRateCtrlD0Ev@Base 3.3.3a
 (optional=gcc-4.8)_ZN16CigiBaseRateCtrlD1Ev@Base 3.3.3a
 (optional=gcc-4.8)_ZN16CigiBaseRateCtrlD2Ev@Base 3.3.3a
 _ZN16CigiBaseViewCtrl6SetYawEfb@Base 3.3.3a
 _ZN16CigiBaseViewCtrl7GetCnvtER13CigiVersionIDRN16CigiCnvtInfoType18CigiCnvtInfoStructE@Base 3.3.3a
 _ZN16CigiBaseViewCtrl7SetRollEfb@Base 3.3.3a
 _ZN16CigiBaseViewCtrl8SetPitchEfb@Base 3.3.3a
 _ZN16CigiBaseViewCtrlC1Ev@Base 3.3.3a
 _ZN16CigiBaseViewCtrlC2Ev@Base 3.3.3a
 _ZN16CigiBaseViewCtrlD0Ev@Base 3.3.3a
 _ZN16CigiBaseViewCtrlD1Ev@Base 3.3.3a
 _ZN16CigiBaseViewCtrlD2Ev@Base 3.3.3a
 _ZN16CigiBaseWaveCtrl10SetBreakerENS_10BreakerGrpEb@Base 3.3.3a
 _ZN16CigiBaseWaveCtrl10SetLeadingEfb@Base 3.3.3a
 _ZN16CigiBaseWaveCtrl10SetWaveLenEfb@Base 3.3.3a
 _ZN16CigiBaseWaveCtrl11SetPhaseOffEfb@Base 3.3.3a
 _ZN16CigiBaseWaveCtrl12SetDirectionEfb@Base 3.3.3a
 _ZN16CigiBaseWaveCtrl7GetCnvtER13CigiVersionIDRN16CigiCnvtInfoType18CigiCnvtInfoStructE@Base 3.3.3a
 _ZN16CigiBaseWaveCtrl8SetScopeENS_8ScopeGrpEb@Base 3.3.3a
 _ZN16CigiBaseWaveCtrl9SetPeriodEfb@Base 3.3.3a
 _ZN16CigiBaseWaveCtrl9SetWaveHtEfb@Base 3.3.3a
 _ZN16CigiBaseWaveCtrlC1Ev@Base 3.3.3a
 _ZN16CigiBaseWaveCtrlC2Ev@Base 3.3.3a
 _ZN16CigiBaseWaveCtrlD0Ev@Base 3.3.3a
 _ZN16CigiBaseWaveCtrlD1Ev@Base 3.3.3a
 _ZN16CigiBaseWaveCtrlD2Ev@Base 3.3.3a
 _ZN16CigiCompCtrlV3_311SetCompDataEajN16CigiBaseCompCtrl7BytePosEb@Base 3.3.3a
 _ZN16CigiCompCtrlV3_311SetCompDataEdjb@Base 3.3.3a
 _ZN16CigiCompCtrlV3_311SetCompDataEfjb@Base 3.3.3a
 _ZN16CigiCompCtrlV3_311SetCompDataEhjN16CigiBaseCompCtrl7BytePosEb@Base 3.3.3a
 _ZN16CigiCompCtrlV3_311SetCompDataEijb@Base 3.3.3a
 _ZN16CigiCompCtrlV3_311SetCompDataEjjb@Base 3.3.3a
 _ZN16CigiCompCtrlV3_311SetCompDataEsjN16CigiBaseCompCtrl11HalfWordPosEb@Base 3.3.3a
 _ZN16CigiCompCtrlV3_311SetCompDataEtjN16CigiBaseCompCtrl11HalfWordPosEb@Base 3.3.3a
 (subst)_ZN16CigiCompCtrlV3_311SetCompDataE{uint64_t}jb@Base 3.3.3a
 _ZN16CigiCompCtrlV3_314CompClassV3xV1E@Base 3.3.3a
 _ZN16CigiCompCtrlV3_314CompClassV3xV2E@Base 3.3.3a
 _ZN16CigiCompCtrlV3_314GetI64CompDataEj@Base 3.3.3a
 _ZN16CigiCompCtrlV3_314SetCompClassV3EN16CigiBaseCompCtrl14CompClassV3GrpEb@Base 3.3.3a
 _ZN16CigiCompCtrlV3_315GetCharCompDataEjN16CigiBaseCompCtrl7BytePosE@Base 3.3.3a
 _ZN16CigiCompCtrlV3_315GetLongCompDataEj@Base 3.3.3a
 _ZN16CigiCompCtrlV3_316GetFloatCompDataEj@Base 3.3.3a
 _ZN16CigiCompCtrlV3_316GetShortCompDataEjN16CigiBaseCompCtrl11HalfWordPosE@Base 3.3.3a
 _ZN16CigiCompCtrlV3_316GetUCharCompDataEjN16CigiBaseCompCtrl7BytePosE@Base 3.3.3a
 _ZN16CigiCompCtrlV3_316GetULongCompDataEj@Base 3.3.3a
 _ZN16CigiCompCtrlV3_317GetDoubleCompDataEj@Base 3.3.3a
 _ZN16CigiCompCtrlV3_317GetUShortCompDataEjN16CigiBaseCompCtrl11HalfWordPosE@Base 3.3.3a
 _ZN16CigiCompCtrlV3_36UnpackEPhbPv@Base 3.3.3a
 _ZN16CigiCompCtrlV3_37GetCnvtER13CigiVersionIDRN16CigiCnvtInfoType18CigiCnvtInfoStructE@Base 3.3.3a
 _ZN16CigiCompCtrlV3_3C1Ev@Base 3.3.3a
 _ZN16CigiCompCtrlV3_3C2Ev@Base 3.3.3a
 _ZN16CigiCompCtrlV3_3D0Ev@Base 3.3.3a
 _ZN16CigiCompCtrlV3_3D1Ev@Base 3.3.3a
 _ZN16CigiCompCtrlV3_3D2Ev@Base 3.3.3a
 _ZN16CigiEntityCtrlV110SetHeadingEfb@Base 3.3.3a
 _ZN16CigiEntityCtrlV114SetEffectStateENS_14EffectStateGrpEb@Base 3.3.3a
 _ZN16CigiEntityCtrlV114SetEntityStateENS_13EntityStV1GrpEb@Base 3.3.3a
 _ZN16CigiEntityCtrlV16UnpackEPhbPv@Base 3.3.3a
 _ZN16CigiEntityCtrlV1C1Ev@Base 3.3.3a
 _ZN16CigiEntityCtrlV1C2Ev@Base 3.3.3a
 _ZN16CigiEntityCtrlV1D0Ev@Base 3.3.3a
 _ZN16CigiEntityCtrlV1D1Ev@Base 3.3.3a
 _ZN16CigiEntityCtrlV1D2Ev@Base 3.3.3a
 _ZN16CigiEntityCtrlV210SetHeadingEfb@Base 3.3.3a
 _ZN16CigiEntityCtrlV210SetOpacityEfb@Base 3.3.3a
 _ZN16CigiEntityCtrlV214SetEffectStateENS_13EffectStV2GrpEb@Base 3.3.3a
 _ZN16CigiEntityCtrlV214SetEntityStateENS_13EntityStV2GrpEb@Base 3.3.3a
 _ZN16CigiEntityCtrlV26UnpackEPhbPv@Base 3.3.3a
 _ZN16CigiEntityCtrlV26V2toV3E@Base 3.3.3a
 _ZN16CigiEntityCtrlV26V3toV2E@Base 3.3.3a
 _ZN16CigiEntityCtrlV2C1Ev@Base 3.3.3a
 _ZN16CigiEntityCtrlV2C2Ev@Base 3.3.3a
 _ZN16CigiEntityCtrlV2D0Ev@Base 3.3.3a
 _ZN16CigiEntityCtrlV2D1Ev@Base 3.3.3a
 _ZN16CigiEntityCtrlV2D2Ev@Base 3.3.3a
 _ZN16CigiEntityCtrlV312SetGrndClampEN18CigiBaseEntityCtrl12GrndClampGrpEb@Base 3.3.3a
 _ZN16CigiEntityCtrlV314SetEntityStateEN18CigiBaseEntityCtrl14EntityStateGrpEb@Base 3.3.3a
 _ZN16CigiEntityCtrlV315SetAnimationDirEN18CigiBaseEntityCtrl15AnimationDirGrpEb@Base 3.3.3a
 _ZN16CigiEntityCtrlV315SetInheritAlphaEN18CigiBaseEntityCtrl15InheritAlphaGrpEb@Base 3.3.3a
 _ZN16CigiEntityCtrlV317SetAnimationStateEN18CigiBaseEntityCtrl17AnimationStateGrpEb@Base 3.3.3a
 _ZN16CigiEntityCtrlV320SetAnimationLoopModeEN18CigiBaseEntityCtrl20AnimationLoopModeGrpEb@Base 3.3.3a
 _ZN16CigiEntityCtrlV36SetYawEfb@Base 3.3.3a
 _ZN16CigiEntityCtrlV36UnpackEPhbPv@Base 3.3.3a
 _ZN16CigiEntityCtrlV3C1Ev@Base 3.3.3a
 _ZN16CigiEntityCtrlV3C2Ev@Base 3.3.3a
 _ZN16CigiEntityCtrlV3D0Ev@Base 3.3.3a
 _ZN16CigiEntityCtrlV3D1Ev@Base 3.3.3a
 _ZN16CigiEntityCtrlV3D2Ev@Base 3.3.3a
 _ZN16CigiEnvCondReqV36UnpackEPhbPv@Base 3.3.3a
 _ZN16CigiEnvCondReqV3C1Ev@Base 3.3.3a
 _ZN16CigiEnvCondReqV3C2Ev@Base 3.3.3a
 _ZN16CigiEnvCondReqV3D0Ev@Base 3.3.3a
 _ZN16CigiEnvCondReqV3D1Ev@Base 3.3.3a
 _ZN16CigiEnvCondReqV3D2Ev@Base 3.3.3a
 _ZN16CigiEnvRgnCtrlV36UnpackEPhbPv@Base 3.3.3a
 _ZN16CigiEnvRgnCtrlV3C1Ev@Base 3.3.3a
 _ZN16CigiEnvRgnCtrlV3C2Ev@Base 3.3.3a
 _ZN16CigiEnvRgnCtrlV3D0Ev@Base 3.3.3a
 _ZN16CigiEnvRgnCtrlV3D1Ev@Base 3.3.3a
 _ZN16CigiEnvRgnCtrlV3D2Ev@Base 3.3.3a
 _ZN16CigiHatHotRespV310SetReqTypeEN18CigiBaseHatHotResp10ReqTypeGrpEb@Base 3.3.3a
 _ZN16CigiHatHotRespV36UnpackEPhbPv@Base 3.3.3a
 _ZN16CigiHatHotRespV37GetCnvtER13CigiVersionIDRN16CigiCnvtInfoType18CigiCnvtInfoStructE@Base 3.3.3a
 _ZN16CigiHatHotRespV3C1Ev@Base 3.3.3a
 _ZN16CigiHatHotRespV3C2Ev@Base 3.3.3a
 _ZN16CigiHatHotRespV3D0Ev@Base 3.3.3a
 _ZN16CigiHatHotRespV3D1Ev@Base 3.3.3a
 _ZN16CigiHatHotRespV3D2Ev@Base 3.3.3a
 _ZN16CigiLosVectReqV16UnpackEPhbPv@Base 3.3.3a
 _ZN16CigiLosVectReqV19SetVectAzEfb@Base 3.3.3a
 _ZN16CigiLosVectReqV1C1Ev@Base 3.3.3a
 _ZN16CigiLosVectReqV1C2Ev@Base 3.3.3a
 _ZN16CigiLosVectReqV1D0Ev@Base 3.3.3a
 _ZN16CigiLosVectReqV1D1Ev@Base 3.3.3a
 _ZN16CigiLosVectReqV1D2Ev@Base 3.3.3a
 _ZN16CigiLosVectReqV26UnpackEPhbPv@Base 3.3.3a
 _ZN16CigiLosVectReqV29SetVectAzEfb@Base 3.3.3a
 _ZN16CigiLosVectReqV2C1Ev@Base 3.3.3a
 _ZN16CigiLosVectReqV2C2Ev@Base 3.3.3a
 _ZN16CigiLosVectReqV2D0Ev@Base 3.3.3a
 _ZN16CigiLosVectReqV2D1Ev@Base 3.3.3a
 _ZN16CigiLosVectReqV2D2Ev@Base 3.3.3a
 _ZN16CigiLosVectReqV310SetReqTypeEN18CigiBaseLosVectReq10ReqTypeGrpEb@Base 3.3.3a
 _ZN16CigiLosVectReqV314SetSrcCoordSysEN18CigiBaseLosVectReq11CoordSysGrpEb@Base 3.3.3a
 _ZN16CigiLosVectReqV319SetResponseCoordSysEN18CigiBaseLosVectReq11CoordSysGrpEb@Base 3.3.3a
 _ZN16CigiLosVectReqV36UnpackEPhbPv@Base 3.3.3a
 _ZN16CigiLosVectReqV39SetVectAzEfb@Base 3.3.3a
 _ZN16CigiLosVectReqV3C1Ev@Base 3.3.3a
 _ZN16CigiLosVectReqV3C2Ev@Base 3.3.3a
 _ZN16CigiLosVectReqV3D0Ev@Base 3.3.3a
 _ZN16CigiLosVectReqV3D1Ev@Base 3.3.3a
 _ZN16CigiLosVectReqV3D2Ev@Base 3.3.3a
 _ZN16CigiLosXRespV3_211SetNormalAzEfb@Base 3.3.3a
 _ZN16CigiLosXRespV3_211SetNormalElEfb@Base 3.3.3a
 _ZN16CigiLosXRespV3_26UnpackEPhbPv@Base 3.3.3a
 _ZN16CigiLosXRespV3_27GetCnvtER13CigiVersionIDRN16CigiCnvtInfoType18CigiCnvtInfoStructE@Base 3.3.3a
 _ZN16CigiLosXRespV3_2C1Ev@Base 3.3.3a
 _ZN16CigiLosXRespV3_2C2Ev@Base 3.3.3a
 _ZN16CigiLosXRespV3_2D0Ev@Base 3.3.3a
 _ZN16CigiLosXRespV3_2D1Ev@Base 3.3.3a
 _ZN16CigiLosXRespV3_2D2Ev@Base 3.3.3a
 _ZN16CigiRateCtrlV3_211SetCoordSysEN16CigiBaseRateCtrl11CoordSysGrpEb@Base 3.3.3a
 _ZN16CigiRateCtrlV3_212SetArtPartIDEhb@Base 3.3.3a
 _ZN16CigiRateCtrlV3_217SetApplyToArtPartEbb@Base 3.3.3a
 _ZN16CigiRateCtrlV3_26UnpackEPhbPv@Base 3.3.3a
 _ZN16CigiRateCtrlV3_2C1Ev@Base 3.3.3a
 _ZN16CigiRateCtrlV3_2C2Ev@Base 3.3.3a
 _ZN16CigiRateCtrlV3_2D0Ev@Base 3.3.3a
 _ZN16CigiRateCtrlV3_2D1Ev@Base 3.3.3a
 _ZN16CigiRateCtrlV3_2D2Ev@Base 3.3.3a
 _ZN16CigiSensorCtrlV16UnpackEPhbPv@Base 3.3.3a
 _ZN16CigiSensorCtrlV17SetGainEfb@Base 3.3.3a
 _ZN16CigiSensorCtrlV19SetViewIDEtb@Base 3.3.3a
 _ZN16CigiSensorCtrlV1C1Ev@Base 3.3.3a
 _ZN16CigiSensorCtrlV1C2Ev@Base 3.3.3a
 _ZN16CigiSensorCtrlV1D0Ev@Base 3.3.3a
 _ZN16CigiSensorCtrlV1D1Ev@Base 3.3.3a
 _ZN16CigiSensorCtrlV1D2Ev@Base 3.3.3a
 _ZN16CigiSensorCtrlV26UnpackEPhbPv@Base 3.3.3a
 _ZN16CigiSensorCtrlV27SetGainEfb@Base 3.3.3a
 _ZN16CigiSensorCtrlV29SetViewIDEtb@Base 3.3.3a
 _ZN16CigiSensorCtrlV2C1Ev@Base 3.3.3a
 _ZN16CigiSensorCtrlV2C2Ev@Base 3.3.3a
 _ZN16CigiSensorCtrlV2D0Ev@Base 3.3.3a
 _ZN16CigiSensorCtrlV2D1Ev@Base 3.3.3a
 _ZN16CigiSensorCtrlV2D2Ev@Base 3.3.3a
 _ZN16CigiSensorCtrlV315SetResponseTypeEN18CigiBaseSensorCtrl15ResponseTypeGrpEb@Base 3.3.3a
 _ZN16CigiSensorCtrlV36UnpackEPhbPv@Base 3.3.3a
 _ZN16CigiSensorCtrlV37SetGainEfb@Base 3.3.3a
 _ZN16CigiSensorCtrlV3C1Ev@Base 3.3.3a
 _ZN16CigiSensorCtrlV3C2Ev@Base 3.3.3a
 _ZN16CigiSensorCtrlV3D0Ev@Base 3.3.3a
 _ZN16CigiSensorCtrlV3D1Ev@Base 3.3.3a
 _ZN16CigiSensorCtrlV3D2Ev@Base 3.3.3a
 _ZN16CigiSensorRespV16UnpackEPhbPv@Base 3.3.3a
 _ZN16CigiSensorRespV19SetViewIDEtb@Base 3.3.3a
 _ZN16CigiSensorRespV1C1Ev@Base 3.3.3a
 _ZN16CigiSensorRespV1C2Ev@Base 3.3.3a
 _ZN16CigiSensorRespV1D0Ev@Base 3.3.3a
 _ZN16CigiSensorRespV1D1Ev@Base 3.3.3a
 _ZN16CigiSensorRespV1D2Ev@Base 3.3.3a
 _ZN16CigiSensorRespV26UnpackEPhbPv@Base 3.3.3a
 _ZN16CigiSensorRespV29SetViewIDEtb@Base 3.3.3a
 _ZN16CigiSensorRespV2C1Ev@Base 3.3.3a
 _ZN16CigiSensorRespV2C2Ev@Base 3.3.3a
 _ZN16CigiSensorRespV2D0Ev@Base 3.3.3a
 _ZN16CigiSensorRespV2D1Ev@Base 3.3.3a
 _ZN16CigiSensorRespV2D2Ev@Base 3.3.3a
 _ZN16CigiSensorRespV36UnpackEPhbPv@Base 3.3.3a
 _ZN16CigiSensorRespV3C1Ev@Base 3.3.3a
 _ZN16CigiSensorRespV3C2Ev@Base 3.3.3a
 _ZN16CigiSensorRespV3D0Ev@Base 3.3.3a
 _ZN16CigiSensorRespV3D1Ev@Base 3.3.3a
 _ZN16CigiSensorRespV3D2Ev@Base 3.3.3a
 _ZN16CigiSpecEffDefV16UnpackEPhbPv@Base 3.3.3a
 _ZN16CigiSpecEffDefV1C1Ev@Base 3.3.3a
 _ZN16CigiSpecEffDefV1C2Ev@Base 3.3.3a
 _ZN16CigiSpecEffDefV1D0Ev@Base 3.3.3a
 _ZN16CigiSpecEffDefV1D1Ev@Base 3.3.3a
 _ZN16CigiSpecEffDefV1D2Ev@Base 3.3.3a
 _ZN16CigiSpecEffDefV26UnpackEPhbPv@Base 3.3.3a
 _ZN16CigiSpecEffDefV2C1Ev@Base 3.3.3a
 _ZN16CigiSpecEffDefV2C2Ev@Base 3.3.3a
 _ZN16CigiSpecEffDefV2D0Ev@Base 3.3.3a
 _ZN16CigiSpecEffDefV2D1Ev@Base 3.3.3a
 _ZN16CigiSpecEffDefV2D2Ev@Base 3.3.3a
 _ZN17CigiAerosolRespV36UnpackEPhbPv@Base 3.3.3a
 _ZN17CigiAerosolRespV3C1Ev@Base 3.3.3a
 _ZN17CigiAerosolRespV3C2Ev@Base 3.3.3a
 _ZN17CigiAerosolRespV3D0Ev@Base 3.3.3a
 _ZN17CigiAerosolRespV3D1Ev@Base 3.3.3a
 _ZN17CigiAerosolRespV3D2Ev@Base 3.3.3a
 _ZN17CigiArtPartCtrlV112SetArtPartIDEab@Base 3.3.3a
 _ZN17CigiArtPartCtrlV16UnpackEPhbPv@Base 3.3.3a
 _ZN17CigiArtPartCtrlV1C1Ev@Base 3.3.3a
 _ZN17CigiArtPartCtrlV1C2Ev@Base 3.3.3a
 _ZN17CigiArtPartCtrlV1D0Ev@Base 3.3.3a
 _ZN17CigiArtPartCtrlV1D1Ev@Base 3.3.3a
 _ZN17CigiArtPartCtrlV1D2Ev@Base 3.3.3a
 _ZN17CigiArtPartCtrlV212SetArtPartIDEab@Base 3.3.3a
 _ZN17CigiArtPartCtrlV26UnpackEPhbPv@Base 3.3.3a
 _ZN17CigiArtPartCtrlV2C1Ev@Base 3.3.3a
 _ZN17CigiArtPartCtrlV2C2Ev@Base 3.3.3a
 _ZN17CigiArtPartCtrlV2D0Ev@Base 3.3.3a
 _ZN17CigiArtPartCtrlV2D1Ev@Base 3.3.3a
 _ZN17CigiArtPartCtrlV2D2Ev@Base 3.3.3a
 _ZN17CigiArtPartCtrlV312SetArtPartIDEhb@Base 3.3.3a
 _ZN17CigiArtPartCtrlV36UnpackEPhbPv@Base 3.3.3a
 _ZN17CigiArtPartCtrlV3C1Ev@Base 3.3.3a
 _ZN17CigiArtPartCtrlV3C2Ev@Base 3.3.3a
 _ZN17CigiArtPartCtrlV3D0Ev@Base 3.3.3a
 _ZN17CigiArtPartCtrlV3D1Ev@Base 3.3.3a
 _ZN17CigiArtPartCtrlV3D2Ev@Base 3.3.3a
 _ZN17CigiBaseHatHotReq6SetLatEdb@Base 3.3.3a
 _ZN17CigiBaseHatHotReq6SetLonEdb@Base 3.3.3a
 _ZN17CigiBaseHatHotReqC1Ev@Base 3.3.3a
 _ZN17CigiBaseHatHotReqC2Ev@Base 3.3.3a
 _ZN17CigiBaseHatHotReqD0Ev@Base 3.3.3a
 _ZN17CigiBaseHatHotReqD1Ev@Base 3.3.3a
 _ZN17CigiBaseHatHotReqD2Ev@Base 3.3.3a
 _ZN17CigiBaseLosSegReq7GetCnvtER13CigiVersionIDRN16CigiCnvtInfoType18CigiCnvtInfoStructE@Base 3.3.3a
 _ZN17CigiBaseLosSegReq9SetDstLatEdb@Base 3.3.3a
 _ZN17CigiBaseLosSegReq9SetDstLonEdb@Base 3.3.3a
 _ZN17CigiBaseLosSegReq9SetSrcLatEdb@Base 3.3.3a
 _ZN17CigiBaseLosSegReq9SetSrcLonEdb@Base 3.3.3a
 _ZN17CigiBaseLosSegReqC1Ev@Base 3.3.3a
 _ZN17CigiBaseLosSegReqC2Ev@Base 3.3.3a
 _ZN17CigiBaseLosSegReqD0Ev@Base 3.3.3a
 _ZN17CigiBaseLosSegReqD1Ev@Base 3.3.3a
 _ZN17CigiBaseLosSegReqD2Ev@Base 3.3.3a
 _ZN17CigiDefaultPacket6UnpackEPhbPv@Base 3.3.3a
 _ZN17CigiDefaultPacketC1Ev@Base 3.3.3a
 _ZN17CigiDefaultPacketC2Ev@Base 3.3.3a
 _ZN17CigiDefaultPacketD0Ev@Base 3.3.3a
 _ZN17CigiDefaultPacketD1Ev@Base 3.3.3a
 _ZN17CigiDefaultPacketD2Ev@Base 3.3.3a
 _ZN17CigiHatHotReqV3_210SetReqTypeEN17CigiBaseHatHotReq10ReqTypeGrpEb@Base 3.3.3a
 _ZN17CigiHatHotReqV3_214SetSrcCoordSysEN17CigiBaseHatHotReq11CoordSysGrpEb@Base 3.3.3a
 _ZN17CigiHatHotReqV3_26UnpackEPhbPv@Base 3.3.3a
 _ZN17CigiHatHotReqV3_27GetCnvtER13CigiVersionIDRN16CigiCnvtInfoType18CigiCnvtInfoStructE@Base 3.3.3a
 _ZN17CigiHatHotReqV3_2C1Ev@Base 3.3.3a
 _ZN17CigiHatHotReqV3_2C2Ev@Base 3.3.3a
 _ZN17CigiHatHotReqV3_2D0Ev@Base 3.3.3a
 _ZN17CigiHatHotReqV3_2D1Ev@Base 3.3.3a
 _ZN17CigiHatHotReqV3_2D2Ev@Base 3.3.3a
 _ZN17CigiHatHotXRespV36UnpackEPhbPv@Base 3.3.3a
 _ZN17CigiHatHotXRespV37GetCnvtER13CigiVersionIDRN16CigiCnvtInfoType18CigiCnvtInfoStructE@Base 3.3.3a
 _ZN17CigiHatHotXRespV39SetNormAzEfb@Base 3.3.3a
 _ZN17CigiHatHotXRespV39SetNormElEfb@Base 3.3.3a
 _ZN17CigiHatHotXRespV3C1Ev@Base 3.3.3a
 _ZN17CigiHatHotXRespV3C2Ev@Base 3.3.3a
 _ZN17CigiHatHotXRespV3D0Ev@Base 3.3.3a
 _ZN17CigiHatHotXRespV3D1Ev@Base 3.3.3a
 _ZN17CigiHatHotXRespV3D2Ev@Base 3.3.3a
 _ZN17CigiLosSegReqV3_210SetReqTypeEN17CigiBaseLosSegReq10ReqTypeGrpEb@Base 3.3.3a
 _ZN17CigiLosSegReqV3_214SetDstCoordSysEN17CigiBaseLosSegReq11CoordSysGrpEb@Base 3.3.3a
 _ZN17CigiLosSegReqV3_214SetSrcCoordSysEN17CigiBaseLosSegReq11CoordSysGrpEb@Base 3.3.3a
 _ZN17CigiLosSegReqV3_219SetResponseCoordSysEN17CigiBaseLosSegReq11CoordSysGrpEb@Base 3.3.3a
 _ZN17CigiLosSegReqV3_26UnpackEPhbPv@Base 3.3.3a
 _ZN17CigiLosSegReqV3_2C1Ev@Base 3.3.3a
 _ZN17CigiLosSegReqV3_2C2Ev@Base 3.3.3a
 _ZN17CigiLosSegReqV3_2D0Ev@Base 3.3.3a
 _ZN17CigiLosSegReqV3_2D1Ev@Base 3.3.3a
 _ZN17CigiLosSegReqV3_2D2Ev@Base 3.3.3a
 _ZN17CigiMessageBufferD0Ev@Base 3.3.3a
 _ZN17CigiMessageBufferD1Ev@Base 3.3.3a
 _ZN17CigiMessageBufferD2Ev@Base 3.3.3a
 _ZN17CigiPositionReqV36UnpackEPhbPv@Base 3.3.3a
 _ZN17CigiPositionReqV3C1Ev@Base 3.3.3a
 _ZN17CigiPositionReqV3C2Ev@Base 3.3.3a
 _ZN17CigiPositionReqV3D0Ev@Base 3.3.3a
 _ZN17CigiPositionReqV3D1Ev@Base 3.3.3a
 _ZN17CigiPositionReqV3D2Ev@Base 3.3.3a
 _ZN17CigiSensorXRespV314SetTrackPntLatEdb@Base 3.3.3a
 _ZN17CigiSensorXRespV314SetTrackPntLonEdb@Base 3.3.3a
 _ZN17CigiSensorXRespV36UnpackEPhbPv@Base 3.3.3a
 _ZN17CigiSensorXRespV37GetCnvtER13CigiVersionIDRN16CigiCnvtInfoType18CigiCnvtInfoStructE@Base 3.3.3a
 _ZN17CigiSensorXRespV3C1Ev@Base 3.3.3a
 _ZN17CigiSensorXRespV3C2Ev@Base 3.3.3a
 _ZN17CigiSensorXRespV3D0Ev@Base 3.3.3a
 _ZN17CigiSensorXRespV3D1Ev@Base 3.3.3a
 _ZN17CigiSensorXRespV3D2Ev@Base 3.3.3a
 _ZN17CigiWeatherCtrlV110SetOpacityEfb@Base 3.3.3a
 _ZN17CigiWeatherCtrlV110SetWindDirEfb@Base 3.3.3a
 _ZN17CigiWeatherCtrlV117SetPhenomenonTypeEtb@Base 3.3.3a
 _ZN17CigiWeatherCtrlV16UnpackEPhbPv@Base 3.3.3a
 _ZN17CigiWeatherCtrlV1C1Ev@Base 3.3.3a
 _ZN17CigiWeatherCtrlV1C2Ev@Base 3.3.3a
 _ZN17CigiWeatherCtrlV1D0Ev@Base 3.3.3a
 _ZN17CigiWeatherCtrlV1D1Ev@Base 3.3.3a
 _ZN17CigiWeatherCtrlV1D2Ev@Base 3.3.3a
 _ZN17CigiWeatherCtrlV210SetOpacityEfb@Base 3.3.3a
 _ZN17CigiWeatherCtrlV210SetWindDirEfb@Base 3.3.3a
 _ZN17CigiWeatherCtrlV217SetPhenomenonTypeEtb@Base 3.3.3a
 _ZN17CigiWeatherCtrlV26UnpackEPhbPv@Base 3.3.3a
 _ZN17CigiWeatherCtrlV2C1Ev@Base 3.3.3a
 _ZN17CigiWeatherCtrlV2C2Ev@Base 3.3.3a
 _ZN17CigiWeatherCtrlV2D0Ev@Base 3.3.3a
 _ZN17CigiWeatherCtrlV2D1Ev@Base 3.3.3a
 _ZN17CigiWeatherCtrlV2D2Ev@Base 3.3.3a
 _ZN17CigiWeatherCtrlV310SetLayerIDEhb@Base 3.3.3a
 _ZN17CigiWeatherCtrlV310SetWindDirEfb@Base 3.3.3a
 _ZN17CigiWeatherCtrlV311SetHumidityEhb@Base 3.3.3a
 _ZN17CigiWeatherCtrlV312SetCloudTypeEN19CigiBaseWeatherCtrl12CloudTypeGrpEb@Base 3.3.3a
 _ZN17CigiWeatherCtrlV36UnpackEPhbPv@Base 3.3.3a
 _ZN17CigiWeatherCtrlV38SetScopeEN19CigiBaseWeatherCtrl8ScopeGrpEb@Base 3.3.3a
 _ZN17CigiWeatherCtrlV3C1Ev@Base 3.3.3a
 _ZN17CigiWeatherCtrlV3C2Ev@Base 3.3.3a
 _ZN17CigiWeatherCtrlV3D0Ev@Base 3.3.3a
 _ZN17CigiWeatherCtrlV3D1Ev@Base 3.3.3a
 _ZN17CigiWeatherCtrlV3D2Ev@Base 3.3.3a
 _ZN18CigiAnimationTable16GetPastAnimationEt@Base 3.3.3a
 _ZN18CigiAnimationTable16SetPastAnimationEtj@Base 3.3.3a
 _ZN18CigiAnimationTableC1Ev@Base 3.3.3a
 _ZN18CigiAnimationTableC2Ev@Base 3.3.3a
 _ZN18CigiAnimationTableD0Ev@Base 3.3.3a
 _ZN18CigiAnimationTableD1Ev@Base 3.3.3a
 _ZN18CigiAnimationTableD2Ev@Base 3.3.3a
 _ZN18CigiBaseEntityCtrl14SetAttachStateENS_14AttachStateGrpEb@Base 3.3.3a
 _ZN18CigiBaseEntityCtrl20SetCollisionDetectEnENS_18CollisionDetectGrpEb@Base 3.3.3a
 _ZN18CigiBaseEntityCtrl4ToV1E@Base 3.3.3a
 _ZN18CigiBaseEntityCtrl4ToV3E@Base 3.3.3a
 _ZN18CigiBaseEntityCtrl6SetLatEdb@Base 3.3.3a
 _ZN18CigiBaseEntityCtrl6SetLonEdb@Base 3.3.3a
 _ZN18CigiBaseEntityCtrl7GetCnvtER13CigiVersionIDRN16CigiCnvtInfoType18CigiCnvtInfoStructE@Base 3.3.3a
 _ZN18CigiBaseEntityCtrl7SetRollEfb@Base 3.3.3a
 _ZN18CigiBaseEntityCtrl8SetPitchEfb@Base 3.3.3a
 _ZN18CigiBaseEntityCtrlC1Ev@Base 3.3.3a
 _ZN18CigiBaseEntityCtrlC2Ev@Base 3.3.3a
 _ZN18CigiBaseEntityCtrlD0Ev@Base 3.3.3a
 _ZN18CigiBaseEntityCtrlD1Ev@Base 3.3.3a
 _ZN18CigiBaseEntityCtrlD2Ev@Base 3.3.3a
 _ZN18CigiBaseEnvCondReq10SetReqTypeEhb@Base 3.3.3a
 _ZN18CigiBaseEnvCondReq6SetLatEdb@Base 3.3.3a
 _ZN18CigiBaseEnvCondReq6SetLonEdb@Base 3.3.3a
 _ZN18CigiBaseEnvCondReq7GetCnvtER13CigiVersionIDRN16CigiCnvtInfoType18CigiCnvtInfoStructE@Base 3.3.3a
 _ZN18CigiBaseEnvCondReqC1Ev@Base 3.3.3a
 _ZN18CigiBaseEnvCondReqC2Ev@Base 3.3.3a
 _ZN18CigiBaseEnvCondReqD0Ev@Base 3.3.3a
 _ZN18CigiBaseEnvCondReqD1Ev@Base 3.3.3a
 _ZN18CigiBaseEnvCondReqD2Ev@Base 3.3.3a
 _ZN18CigiBaseEnvRgnCtrl10SetAerosolENS_12MergeCtrlGrpEb@Base 3.3.3a
 _ZN18CigiBaseEnvRgnCtrl11SetRgnStateENS_11RgnStateGrpEb@Base 3.3.3a
 _ZN18CigiBaseEnvRgnCtrl11SetRotationEfb@Base 3.3.3a
 _ZN18CigiBaseEnvRgnCtrl14SetWeatherPropENS_12MergeCtrlGrpEb@Base 3.3.3a
 _ZN18CigiBaseEnvRgnCtrl18SetMaritimeSurfaceENS_12MergeCtrlGrpEb@Base 3.3.3a
 _ZN18CigiBaseEnvRgnCtrl21SetTerrestrialSurfaceENS_12MergeCtrlGrpEb@Base 3.3.3a
 _ZN18CigiBaseEnvRgnCtrl6SetLatEdb@Base 3.3.3a
 _ZN18CigiBaseEnvRgnCtrl6SetLonEdb@Base 3.3.3a
 _ZN18CigiBaseEnvRgnCtrl7GetCnvtER13CigiVersionIDRN16CigiCnvtInfoType18CigiCnvtInfoStructE@Base 3.3.3a
 _ZN18CigiBaseEnvRgnCtrlC1Ev@Base 3.3.3a
 _ZN18CigiBaseEnvRgnCtrlC2Ev@Base 3.3.3a
 _ZN18CigiBaseEnvRgnCtrlD0Ev@Base 3.3.3a
 _ZN18CigiBaseEnvRgnCtrlD1Ev@Base 3.3.3a
 _ZN18CigiBaseEnvRgnCtrlD2Ev@Base 3.3.3a
 (optional=gcc-4.8)_ZN18CigiBaseHatHotRespD0Ev@Base 3.3.3a
 (optional=gcc-4.8)_ZN18CigiBaseHatHotRespD1Ev@Base 3.3.3a
 (optional=gcc-4.8)_ZN18CigiBaseHatHotRespD2Ev@Base 3.3.3a
 _ZN18CigiBaseLosVectReq7GetCnvtER13CigiVersionIDRN16CigiCnvtInfoType18CigiCnvtInfoStructE@Base 3.3.3a
 _ZN18CigiBaseLosVectReq9SetSrcLatEdb@Base 3.3.3a
 _ZN18CigiBaseLosVectReq9SetSrcLonEdb@Base 3.3.3a
 _ZN18CigiBaseLosVectReq9SetVectElEfb@Base 3.3.3a
 _ZN18CigiBaseLosVectReqC1Ev@Base 3.3.3a
 _ZN18CigiBaseLosVectReqC2Ev@Base 3.3.3a
 _ZN18CigiBaseLosVectReqD0Ev@Base 3.3.3a
 _ZN18CigiBaseLosVectReqD1Ev@Base 3.3.3a
 _ZN18CigiBaseLosVectReqD2Ev@Base 3.3.3a
 _ZN18CigiBaseSensorCtrl11SetPolarityENS_11PolarityGrpEb@Base 3.3.3a
 _ZN18CigiBaseSensorCtrl12SetTrackModeENS_12TrackModeGrpEb@Base 3.3.3a
 _ZN18CigiBaseSensorCtrl13SetACCouplingEfb@Base 3.3.3a
 _ZN18CigiBaseSensorCtrl16SetTrackPolarityENS_16TrackPolarityGrpEb@Base 3.3.3a
 _ZN18CigiBaseSensorCtrl7GetCnvtER13CigiVersionIDRN16CigiCnvtInfoType18CigiCnvtInfoStructE@Base 3.3.3a
 _ZN18CigiBaseSensorCtrl8SetLevelEfb@Base 3.3.3a
 _ZN18CigiBaseSensorCtrl8SetNoiseEfb@Base 3.3.3a
 _ZN18CigiBaseSensorCtrlC1Ev@Base 3.3.3a
 _ZN18CigiBaseSensorCtrlC2Ev@Base 3.3.3a
 _ZN18CigiBaseSensorCtrlD0Ev@Base 3.3.3a
 _ZN18CigiBaseSensorCtrlD1Ev@Base 3.3.3a
 _ZN18CigiBaseSensorCtrlD2Ev@Base 3.3.3a
 _ZN18CigiBaseSensorResp11SetGateXoffEfb@Base 3.3.3a
 _ZN18CigiBaseSensorResp11SetGateYoffEfb@Base 3.3.3a
 _ZN18CigiBaseSensorResp13SetSensorStatENS_13SensorStatGrpEb@Base 3.3.3a
 _ZN18CigiBaseSensorResp7GetCnvtER13CigiVersionIDRN16CigiCnvtInfoType18CigiCnvtInfoStructE@Base 3.3.3a
 _ZN18CigiBaseSensorRespC1Ev@Base 3.3.3a
 _ZN18CigiBaseSensorRespC2Ev@Base 3.3.3a
 _ZN18CigiBaseSensorRespD0Ev@Base 3.3.3a
 _ZN18CigiBaseSensorRespD1Ev@Base 3.3.3a
 _ZN18CigiBaseSensorRespD2Ev@Base 3.3.3a
 _ZN18CigiBaseSpecEffDef12SetTimeScaleEfb@Base 3.3.3a
 _ZN18CigiBaseSpecEffDef7GetCnvtER13CigiVersionIDRN16CigiCnvtInfoType18CigiCnvtInfoStructE@Base 3.3.3a
 _ZN18CigiBaseSpecEffDef9SetSeqDirENS_9SeqDirGrpEb@Base 3.3.3a
 _ZN18CigiBaseSpecEffDef9SetXScaleEfb@Base 3.3.3a
 _ZN18CigiBaseSpecEffDef9SetYScaleEfb@Base 3.3.3a
 _ZN18CigiBaseSpecEffDef9SetZScaleEfb@Base 3.3.3a
 _ZN18CigiBaseSpecEffDefC1Ev@Base 3.3.3a
 _ZN18CigiBaseSpecEffDefC2Ev@Base 3.3.3a
 _ZN18CigiBaseSpecEffDefD0Ev@Base 3.3.3a
 _ZN18CigiBaseSpecEffDefD1Ev@Base 3.3.3a
 _ZN18CigiBaseSpecEffDefD2Ev@Base 3.3.3a
 _ZN18CigiBaseSymbolCtrl12SetFlashCtrlENS_12FlashCtrlGrpEb@Base 3.3.3a
 _ZN18CigiBaseSymbolCtrl14SetAttachStateENS_14AttachStateGrpEb@Base 3.3.3a
 _ZN18CigiBaseSymbolCtrl14SetSymbolStateENS_14SymbolStateGrpEb@Base 3.3.3a
 _ZN18CigiBaseSymbolCtrl15SetInheritColorENS_15InheritColorGrpEb@Base 3.3.3a
 _ZN18CigiBaseSymbolCtrl17SetFlashDutyCycleEhb@Base 3.3.3a
 _ZN18CigiBaseSymbolCtrl7GetCnvtER13CigiVersionIDRN16CigiCnvtInfoType18CigiCnvtInfoStructE@Base 3.3.3a
 _ZN18CigiBaseSymbolCtrlC1Ev@Base 3.3.3a
 _ZN18CigiBaseSymbolCtrlC2Ev@Base 3.3.3a
 _ZN18CigiBaseSymbolCtrlD0Ev@Base 3.3.3a
 _ZN18CigiBaseSymbolCtrlD1Ev@Base 3.3.3a
 _ZN18CigiBaseSymbolCtrlD2Ev@Base 3.3.3a
 _ZN18CigiEntityCtrlV3_312SetGrndClampEN18CigiBaseEntityCtrl12GrndClampGrpEb@Base 3.3.3a
 _ZN18CigiEntityCtrlV3_314SetEntityStateEN18CigiBaseEntityCtrl14EntityStateGrpEb@Base 3.3.3a
 _ZN18CigiEntityCtrlV3_315SetAnimationDirEN18CigiBaseEntityCtrl15AnimationDirGrpEb@Base 3.3.3a
 _ZN18CigiEntityCtrlV3_315SetInheritAlphaEN18CigiBaseEntityCtrl15InheritAlphaGrpEb@Base 3.3.3a
 _ZN18CigiEntityCtrlV3_317SetAnimationStateEN18CigiBaseEntityCtrl17AnimationStateGrpEb@Base 3.3.3a
 _ZN18CigiEntityCtrlV3_320SetAnimationLoopModeEN18CigiBaseEntityCtrl20AnimationLoopModeGrpEb@Base 3.3.3a
 _ZN18CigiEntityCtrlV3_36SetYawEfb@Base 3.3.3a
 _ZN18CigiEntityCtrlV3_36UnpackEPhbPv@Base 3.3.3a
 _ZN18CigiEntityCtrlV3_3C1Ev@Base 3.3.3a
 _ZN18CigiEntityCtrlV3_3C2Ev@Base 3.3.3a
 _ZN18CigiEntityCtrlV3_3D0Ev@Base 3.3.3a
 _ZN18CigiEntityCtrlV3_3D1Ev@Base 3.3.3a
 _ZN18CigiEntityCtrlV3_3D2Ev@Base 3.3.3a
 _ZN18CigiHatHotRespV3_210SetReqTypeEN18CigiBaseHatHotResp10ReqTypeGrpEb@Base 3.3.3a
 _ZN18CigiHatHotRespV3_26UnpackEPhbPv@Base 3.3.3a
 _ZN18CigiHatHotRespV3_27GetCnvtER13CigiVersionIDRN16CigiCnvtInfoType18CigiCnvtInfoStructE@Base 3.3.3a
 _ZN18CigiHatHotRespV3_2C1Ev@Base 3.3.3a
 _ZN18CigiHatHotRespV3_2C2Ev@Base 3.3.3a
 _ZN18CigiHatHotRespV3_2D0Ev@Base 3.3.3a
 _ZN18CigiHatHotRespV3_2D1Ev@Base 3.3.3a
 _ZN18CigiHatHotRespV3_2D2Ev@Base 3.3.3a
 _ZN18CigiLosVectReqV3_210SetReqTypeEN18CigiBaseLosVectReq10ReqTypeGrpEb@Base 3.3.3a
 _ZN18CigiLosVectReqV3_214SetSrcCoordSysEN18CigiBaseLosVectReq11CoordSysGrpEb@Base 3.3.3a
 _ZN18CigiLosVectReqV3_219SetResponseCoordSysEN18CigiBaseLosVectReq11CoordSysGrpEb@Base 3.3.3a
 _ZN18CigiLosVectReqV3_26UnpackEPhbPv@Base 3.3.3a
 _ZN18CigiLosVectReqV3_29SetVectAzEfb@Base 3.3.3a
 _ZN18CigiLosVectReqV3_2C1Ev@Base 3.3.3a
 _ZN18CigiLosVectReqV3_2C2Ev@Base 3.3.3a
 _ZN18CigiLosVectReqV3_2D0Ev@Base 3.3.3a
 _ZN18CigiLosVectReqV3_2D1Ev@Base 3.3.3a
 _ZN18CigiLosVectReqV3_2D2Ev@Base 3.3.3a
 _ZN18CigiPositionRespV36UnpackEPhbPv@Base 3.3.3a
 _ZN18CigiPositionRespV3C1Ev@Base 3.3.3a
 _ZN18CigiPositionRespV3C2Ev@Base 3.3.3a
 _ZN18CigiPositionRespV3D0Ev@Base 3.3.3a
 _ZN18CigiPositionRespV3D1Ev@Base 3.3.3a
 _ZN18CigiPositionRespV3D2Ev@Base 3.3.3a
 _ZN18CigiSymbolCtrlV3_36UnpackEPhbPv@Base 3.3.3a
 _ZN18CigiSymbolCtrlV3_3C1Ev@Base 3.3.3a
 _ZN18CigiSymbolCtrlV3_3C2Ev@Base 3.3.3a
 _ZN18CigiSymbolCtrlV3_3D0Ev@Base 3.3.3a
 _ZN18CigiSymbolCtrlV3_3D1Ev@Base 3.3.3a
 _ZN18CigiSymbolCtrlV3_3D2Ev@Base 3.3.3a
 _ZN19CigiAnimationStopV36UnpackEPhbPv@Base 3.3.3a
 _ZN19CigiAnimationStopV3C1Ev@Base 3.3.3a
 _ZN19CigiAnimationStopV3C2Ev@Base 3.3.3a
 _ZN19CigiAnimationStopV3D0Ev@Base 3.3.3a
 _ZN19CigiAnimationStopV3D1Ev@Base 3.3.3a
 _ZN19CigiAnimationStopV3D2Ev@Base 3.3.3a
 _ZN19CigiBaseAerosolResp23SetAerosolConcentrationEfb@Base 3.3.3a
 _ZN19CigiBaseAerosolResp7GetCnvtER13CigiVersionIDRN16CigiCnvtInfoType18CigiCnvtInfoStructE@Base 3.3.3a
 _ZN19CigiBaseAerosolRespC1Ev@Base 3.3.3a
 _ZN19CigiBaseAerosolRespC2Ev@Base 3.3.3a
 _ZN19CigiBaseAerosolRespD0Ev@Base 3.3.3a
 _ZN19CigiBaseAerosolRespD1Ev@Base 3.3.3a
 _ZN19CigiBaseAerosolRespD2Ev@Base 3.3.3a
 _ZN19CigiBaseArtPartCtrl6SetYawEfb@Base 3.3.3a
 _ZN19CigiBaseArtPartCtrl7GetCnvtER13CigiVersionIDRN16CigiCnvtInfoType18CigiCnvtInfoStructE@Base 3.3.3a
 _ZN19CigiBaseArtPartCtrl7SetRollEfb@Base 3.3.3a
 _ZN19CigiBaseArtPartCtrl8SetPitchEfb@Base 3.3.3a
 _ZN19CigiBaseArtPartCtrlC1Ev@Base 3.3.3a
 _ZN19CigiBaseArtPartCtrlC2Ev@Base 3.3.3a
 _ZN19CigiBaseArtPartCtrlD0Ev@Base 3.3.3a
 _ZN19CigiBaseArtPartCtrlD1Ev@Base 3.3.3a
 _ZN19CigiBaseArtPartCtrlD2Ev@Base 3.3.3a
 _ZN19CigiBasePositionReq11SetCoordSysENS_11CoordSysGrpEb@Base 3.3.3a
 _ZN19CigiBasePositionReq13SetUpdateModeENS_13UpdateModeGrpEb@Base 3.3.3a
 _ZN19CigiBasePositionReq14SetObjectClassENS_14ObjectClassGrpEb@Base 3.3.3a
 _ZN19CigiBasePositionReq7GetCnvtER13CigiVersionIDRN16CigiCnvtInfoType18CigiCnvtInfoStructE@Base 3.3.3a
 _ZN19CigiBasePositionReqC1Ev@Base 3.3.3a
 _ZN19CigiBasePositionReqC2Ev@Base 3.3.3a
 _ZN19CigiBasePositionReqD0Ev@Base 3.3.3a
 _ZN19CigiBasePositionReqD1Ev@Base 3.3.3a
 _ZN19CigiBasePositionReqD2Ev@Base 3.3.3a
 _ZN19CigiBaseSymbolClone13SetSourceTypeENS_15SymbolSourceGrpEb@Base 3.3.3a
 _ZN19CigiBaseSymbolClone7GetCnvtER13CigiVersionIDRN16CigiCnvtInfoType18CigiCnvtInfoStructE@Base 3.3.3a
 _ZN19CigiBaseSymbolCloneC1Ev@Base 3.3.3a
 _ZN19CigiBaseSymbolCloneC2Ev@Base 3.3.3a
 _ZN19CigiBaseSymbolCloneD0Ev@Base 3.3.3a
 _ZN19CigiBaseSymbolCloneD1Ev@Base 3.3.3a
 _ZN19CigiBaseSymbolCloneD2Ev@Base 3.3.3a
 _ZN19CigiBaseWeatherCtrl11SetCoverageEfb@Base 3.3.3a
 _ZN19CigiBaseWeatherCtrl11SetScudFreqEfb@Base 3.3.3a
 _ZN19CigiBaseWeatherCtrl11SetSeverityEhb@Base 3.3.3a
 _ZN19CigiBaseWeatherCtrl16SetVisibilityRngEfb@Base 3.3.3a
 _ZN19CigiBaseWeatherCtrl7GetCnvtER13CigiVersionIDRN16CigiCnvtInfoType18CigiCnvtInfoStructE@Base 3.3.3a
 _ZN19CigiBaseWeatherCtrlC1Ev@Base 3.3.3a
 _ZN19CigiBaseWeatherCtrlC2Ev@Base 3.3.3a
 _ZN19CigiBaseWeatherCtrlD0Ev@Base 3.3.3a
 _ZN19CigiBaseWeatherCtrlD1Ev@Base 3.3.3a
 _ZN19CigiBaseWeatherCtrlD2Ev@Base 3.3.3a
 _ZN19CigiCelestialCtrlV310SetStarIntEfb@Base 3.3.3a
 _ZN19CigiCelestialCtrlV36SetDayEhb@Base 3.3.3a
 _ZN19CigiCelestialCtrlV36UnpackEPhbPv@Base 3.3.3a
 _ZN19CigiCelestialCtrlV37SetHourEhb@Base 3.3.3a
 _ZN19CigiCelestialCtrlV38SetMonthEhb@Base 3.3.3a
 _ZN19CigiCelestialCtrlV39SetMinuteEhb@Base 3.3.3a
 _ZN19CigiCelestialCtrlV3C1Ev@Base 3.3.3a
 _ZN19CigiCelestialCtrlV3C2Ev@Base 3.3.3a
 _ZN19CigiCelestialCtrlV3D0Ev@Base 3.3.3a
 _ZN19CigiCelestialCtrlV3D1Ev@Base 3.3.3a
 _ZN19CigiCelestialCtrlV3D2Ev@Base 3.3.3a
 _ZN19CigiCollDetSegDefV112SetSegmentIDEhb@Base 3.3.3a
 _ZN19CigiCollDetSegDefV16UnpackEPhbPv@Base 3.3.3a
 _ZN19CigiCollDetSegDefV1C1Ev@Base 3.3.3a
 _ZN19CigiCollDetSegDefV1C2Ev@Base 3.3.3a
 _ZN19CigiCollDetSegDefV1D0Ev@Base 3.3.3a
 _ZN19CigiCollDetSegDefV1D1Ev@Base 3.3.3a
 _ZN19CigiCollDetSegDefV1D2Ev@Base 3.3.3a
 _ZN19CigiCollDetSegDefV212SetSegmentIDEhb@Base 3.3.3a
 _ZN19CigiCollDetSegDefV26UnpackEPhbPv@Base 3.3.3a
 _ZN19CigiCollDetSegDefV2C1Ev@Base 3.3.3a
 _ZN19CigiCollDetSegDefV2C2Ev@Base 3.3.3a
 _ZN19CigiCollDetSegDefV2D0Ev@Base 3.3.3a
 _ZN19CigiCollDetSegDefV2D1Ev@Base 3.3.3a
 _ZN19CigiCollDetSegDefV2D2Ev@Base 3.3.3a
 _ZN19CigiCollDetSegDefV36UnpackEPhbPv@Base 3.3.3a
 _ZN19CigiCollDetSegDefV3C1Ev@Base 3.3.3a
 _ZN19CigiCollDetSegDefV3C2Ev@Base 3.3.3a
 _ZN19CigiCollDetSegDefV3D0Ev@Base 3.3.3a
 _ZN19CigiCollDetSegDefV3D1Ev@Base 3.3.3a
 _ZN19CigiCollDetSegDefV3D2Ev@Base 3.3.3a
 _ZN19CigiCollDetVolDefV26UnpackEPhbPv@Base 3.3.3a
 _ZN19CigiCollDetVolDefV2C1Ev@Base 3.3.3a
 _ZN19CigiCollDetVolDefV2C2Ev@Base 3.3.3a
 _ZN19CigiCollDetVolDefV2D0Ev@Base 3.3.3a
 _ZN19CigiCollDetVolDefV2D1Ev@Base 3.3.3a
 _ZN19CigiCollDetVolDefV2D2Ev@Base 3.3.3a
 _ZN19CigiCollDetVolDefV310SetVolTypeEN21CigiBaseCollDetVolDef10VolTypeGrpEb@Base 3.3.3a
 _ZN19CigiCollDetVolDefV36SetYawEfb@Base 3.3.3a
 _ZN19CigiCollDetVolDefV36UnpackEPhbPv@Base 3.3.3a
 _ZN19CigiCollDetVolDefV37SetRollEfb@Base 3.3.3a
 _ZN19CigiCollDetVolDefV38SetPitchEfb@Base 3.3.3a
 _ZN19CigiCollDetVolDefV3C1Ev@Base 3.3.3a
 _ZN19CigiCollDetVolDefV3C2Ev@Base 3.3.3a
 _ZN19CigiCollDetVolDefV3D0Ev@Base 3.3.3a
 _ZN19CigiCollDetVolDefV3D1Ev@Base 3.3.3a
 _ZN19CigiCollDetVolDefV3D2Ev@Base 3.3.3a
 _ZN19CigiEarthModelDefV36UnpackEPhbPv@Base 3.3.3a
 _ZN19CigiEarthModelDefV3C1Ev@Base 3.3.3a
 _ZN19CigiEarthModelDefV3C2Ev@Base 3.3.3a
 _ZN19CigiEarthModelDefV3D0Ev@Base 3.3.3a
 _ZN19CigiEarthModelDefV3D1Ev@Base 3.3.3a
 _ZN19CigiEarthModelDefV3D2Ev@Base 3.3.3a
 _ZN19CigiHatHotXRespV3_26UnpackEPhbPv@Base 3.3.3a
 _ZN19CigiHatHotXRespV3_27GetCnvtER13CigiVersionIDRN16CigiCnvtInfoType18CigiCnvtInfoStructE@Base 3.3.3a
 _ZN19CigiHatHotXRespV3_29SetNormAzEfb@Base 3.3.3a
 _ZN19CigiHatHotXRespV3_29SetNormElEfb@Base 3.3.3a
 _ZN19CigiHatHotXRespV3_2C1Ev@Base 3.3.3a
 _ZN19CigiHatHotXRespV3_2C2Ev@Base 3.3.3a
 _ZN19CigiHatHotXRespV3_2D0Ev@Base 3.3.3a
 _ZN19CigiHatHotXRespV3_2D1Ev@Base 3.3.3a
 _ZN19CigiHatHotXRespV3_2D2Ev@Base 3.3.3a
 _ZN19CigiShortCompCtrlV311SetCompDataEajN16CigiBaseCompCtrl7BytePosEb@Base 3.3.3a
 _ZN19CigiShortCompCtrlV311SetCompDataEdjb@Base 3.3.3a
 _ZN19CigiShortCompCtrlV311SetCompDataEfjb@Base 3.3.3a
 _ZN19CigiShortCompCtrlV311SetCompDataEhjN16CigiBaseCompCtrl7BytePosEb@Base 3.3.3a
 _ZN19CigiShortCompCtrlV311SetCompDataEijb@Base 3.3.3a
 _ZN19CigiShortCompCtrlV311SetCompDataEjjb@Base 3.3.3a
 _ZN19CigiShortCompCtrlV311SetCompDataEsjN16CigiBaseCompCtrl11HalfWordPosEb@Base 3.3.3a
 _ZN19CigiShortCompCtrlV311SetCompDataEtjN16CigiBaseCompCtrl11HalfWordPosEb@Base 3.3.3a
 (subst)_ZN19CigiShortCompCtrlV311SetCompDataE{uint64_t}jb@Base 3.3.3a
 _ZN19CigiShortCompCtrlV314CompClassV3xV1E@Base 3.3.3a
 _ZN19CigiShortCompCtrlV314CompClassV3xV2E@Base 3.3.3a
 _ZN19CigiShortCompCtrlV314GetI64CompDataEj@Base 3.3.3a
 _ZN19CigiShortCompCtrlV314SetCompClassV3EN16CigiBaseCompCtrl14CompClassV3GrpEb@Base 3.3.3a
 _ZN19CigiShortCompCtrlV315GetCharCompDataEjN16CigiBaseCompCtrl7BytePosE@Base 3.3.3a
 _ZN19CigiShortCompCtrlV315GetLongCompDataEj@Base 3.3.3a
 _ZN19CigiShortCompCtrlV316GetFloatCompDataEj@Base 3.3.3a
 _ZN19CigiShortCompCtrlV316GetShortCompDataEjN16CigiBaseCompCtrl11HalfWordPosE@Base 3.3.3a
 _ZN19CigiShortCompCtrlV316GetUCharCompDataEjN16CigiBaseCompCtrl7BytePosE@Base 3.3.3a
 _ZN19CigiShortCompCtrlV316GetULongCompDataEj@Base 3.3.3a
 _ZN19CigiShortCompCtrlV317GetDoubleCompDataEj@Base 3.3.3a
 _ZN19CigiShortCompCtrlV317GetUShortCompDataEjN16CigiBaseCompCtrl11HalfWordPosE@Base 3.3.3a
 _ZN19CigiShortCompCtrlV36UnpackEPhbPv@Base 3.3.3a
 _ZN19CigiShortCompCtrlV37GetCnvtER13CigiVersionIDRN16CigiCnvtInfoType18CigiCnvtInfoStructE@Base 3.3.3a
 _ZN19CigiShortCompCtrlV3C1Ev@Base 3.3.3a
 _ZN19CigiShortCompCtrlV3C2Ev@Base 3.3.3a
 _ZN19CigiShortCompCtrlV3D0Ev@Base 3.3.3a
 _ZN19CigiShortCompCtrlV3D1Ev@Base 3.3.3a
 _ZN19CigiShortCompCtrlV3D2Ev@Base 3.3.3a
 _ZN19CigiSymbolCloneV3_36UnpackEPhbPv@Base 3.3.3a
 _ZN19CigiSymbolCloneV3_3C1Ev@Base 3.3.3a
 _ZN19CigiSymbolCloneV3_3C2Ev@Base 3.3.3a
 _ZN19CigiSymbolCloneV3_3D0Ev@Base 3.3.3a
 _ZN19CigiSymbolCloneV3_3D1Ev@Base 3.3.3a
 _ZN19CigiSymbolCloneV3_3D2Ev@Base 3.3.3a
 _ZN19CigiTrajectoryDefV16UnpackEPhbPv@Base 3.3.3a
 _ZN19CigiTrajectoryDefV1C1Ev@Base 3.3.3a
 _ZN19CigiTrajectoryDefV1C2Ev@Base 3.3.3a
 _ZN19CigiTrajectoryDefV1D0Ev@Base 3.3.3a
 _ZN19CigiTrajectoryDefV1D1Ev@Base 3.3.3a
 _ZN19CigiTrajectoryDefV1D2Ev@Base 3.3.3a
 _ZN19CigiTrajectoryDefV26UnpackEPhbPv@Base 3.3.3a
 _ZN19CigiTrajectoryDefV2C1Ev@Base 3.3.3a
 _ZN19CigiTrajectoryDefV2C2Ev@Base 3.3.3a
 _ZN19CigiTrajectoryDefV2D0Ev@Base 3.3.3a
 _ZN19CigiTrajectoryDefV2D1Ev@Base 3.3.3a
 _ZN19CigiTrajectoryDefV2D2Ev@Base 3.3.3a
 _ZN19CigiTrajectoryDefV36UnpackEPhbPv@Base 3.3.3a
 _ZN19CigiTrajectoryDefV39SetAccelXEfb@Base 3.3.3a
 _ZN19CigiTrajectoryDefV39SetAccelYEfb@Base 3.3.3a
 _ZN19CigiTrajectoryDefV39SetAccelZEfb@Base 3.3.3a
 _ZN19CigiTrajectoryDefV3C1Ev@Base 3.3.3a
 _ZN19CigiTrajectoryDefV3C2Ev@Base 3.3.3a
 _ZN19CigiTrajectoryDefV3D0Ev@Base 3.3.3a
 _ZN19CigiTrajectoryDefV3D1Ev@Base 3.3.3a
 _ZN19CigiTrajectoryDefV3D2Ev@Base 3.3.3a
 _ZN20CigiBasePositionResp11SetCoordSysENS_11CoordSysGrpEb@Base 3.3.3a
 _ZN20CigiBasePositionResp14SetObjectClassENS_14ObjectClassGrpEb@Base 3.3.3a
 _ZN20CigiBasePositionResp6SetYawEfb@Base 3.3.3a
 _ZN20CigiBasePositionResp7GetCnvtER13CigiVersionIDRN16CigiCnvtInfoType18CigiCnvtInfoStructE@Base 3.3.3a
 _ZN20CigiBasePositionResp7SetRollEfb@Base 3.3.3a
 _ZN20CigiBasePositionResp8SetPitchEfb@Base 3.3.3a
 _ZN20CigiBasePositionRespC1Ev@Base 3.3.3a
 _ZN20CigiBasePositionRespC2Ev@Base 3.3.3a
 _ZN20CigiBasePositionRespD0Ev@Base 3.3.3a
 _ZN20CigiBasePositionRespD1Ev@Base 3.3.3a
 _ZN20CigiBasePositionRespD2Ev@Base 3.3.3a
 _ZN20CigiCollDetSegRespV16UnpackEPhbPv@Base 3.3.3a
 _ZN20CigiCollDetSegRespV18SetSegIDEhb@Base 3.3.3a
 _ZN20CigiCollDetSegRespV1C1Ev@Base 3.3.3a
 _ZN20CigiCollDetSegRespV1C2Ev@Base 3.3.3a
 _ZN20CigiCollDetSegRespV1D0Ev@Base 3.3.3a
 _ZN20CigiCollDetSegRespV1D1Ev@Base 3.3.3a
 _ZN20CigiCollDetSegRespV1D2Ev@Base 3.3.3a
 _ZN20CigiCollDetSegRespV211SetCollTypeEN22CigiBaseCollDetSegResp11CollTypeGrpEb@Base 3.3.3a
 _ZN20CigiCollDetSegRespV26UnpackEPhbPv@Base 3.3.3a
 _ZN20CigiCollDetSegRespV28SetSegIDEhb@Base 3.3.3a
 _ZN20CigiCollDetSegRespV2C1Ev@Base 3.3.3a
 _ZN20CigiCollDetSegRespV2C2Ev@Base 3.3.3a
 _ZN20CigiCollDetSegRespV2D0Ev@Base 3.3.3a
 _ZN20CigiCollDetSegRespV2D1Ev@Base 3.3.3a
 _ZN20CigiCollDetSegRespV2D2Ev@Base 3.3.3a
 _ZN20CigiCollDetSegRespV311SetCollTypeEN22CigiBaseCollDetSegResp11CollTypeGrpEb@Base 3.3.3a
 _ZN20CigiCollDetSegRespV36UnpackEPhbPv@Base 3.3.3a
 _ZN20CigiCollDetSegRespV3C1Ev@Base 3.3.3a
 _ZN20CigiCollDetSegRespV3C2Ev@Base 3.3.3a
 _ZN20CigiCollDetSegRespV3D0Ev@Base 3.3.3a
 _ZN20CigiCollDetSegRespV3D1Ev@Base 3.3.3a
 _ZN20CigiCollDetSegRespV3D2Ev@Base 3.3.3a
 _ZN20CigiCollDetVolRespV26UnpackEPhbPv@Base 3.3.3a
 _ZN20CigiCollDetVolRespV28SetVolIDEhb@Base 3.3.3a
 _ZN20CigiCollDetVolRespV2C1Ev@Base 3.3.3a
 _ZN20CigiCollDetVolRespV2C2Ev@Base 3.3.3a
 _ZN20CigiCollDetVolRespV2D0Ev@Base 3.3.3a
 _ZN20CigiCollDetVolRespV2D1Ev@Base 3.3.3a
 _ZN20CigiCollDetVolRespV2D2Ev@Base 3.3.3a
 _ZN20CigiCollDetVolRespV36UnpackEPhbPv@Base 3.3.3a
 _ZN20CigiCollDetVolRespV3C1Ev@Base 3.3.3a
 _ZN20CigiCollDetVolRespV3C2Ev@Base 3.3.3a
 _ZN20CigiCollDetVolRespV3D0Ev@Base 3.3.3a
 _ZN20CigiCollDetVolRespV3D1Ev@Base 3.3.3a
 _ZN20CigiCollDetVolRespV3D2Ev@Base 3.3.3a
 _ZN21CigiBaseAnimationStop7GetCnvtER13CigiVersionIDRN16CigiCnvtInfoType18CigiCnvtInfoStructE@Base 3.3.3a
 (optional=gcc-4.8)_ZN21CigiBaseAnimationStopD0Ev@Base 3.3.3a
 (optional=gcc-4.8)_ZN21CigiBaseAnimationStopD1Ev@Base 3.3.3a
 (optional=gcc-4.8)_ZN21CigiBaseAnimationStopD2Ev@Base 3.3.3a
 _ZN21CigiBaseCollDetSegDef7GetCnvtER13CigiVersionIDRN16CigiCnvtInfoType18CigiCnvtInfoStructE@Base 3.3.3a
 (optional=gcc-4.8)_ZN21CigiBaseCollDetSegDefD0Ev@Base 3.3.3a
 (optional=gcc-4.8)_ZN21CigiBaseCollDetSegDefD1Ev@Base 3.3.3a
 (optional=gcc-4.8)_ZN21CigiBaseCollDetSegDefD2Ev@Base 3.3.3a
 _ZN21CigiBaseCollDetVolDef7GetCnvtER13CigiVersionIDRN16CigiCnvtInfoType18CigiCnvtInfoStructE@Base 3.3.3a
 _ZN21CigiBaseCollDetVolDefC1Ev@Base 3.3.3a
 _ZN21CigiBaseCollDetVolDefC2Ev@Base 3.3.3a
 _ZN21CigiBaseCollDetVolDefD0Ev@Base 3.3.3a
 _ZN21CigiBaseCollDetVolDefD1Ev@Base 3.3.3a
 _ZN21CigiBaseCollDetVolDefD2Ev@Base 3.3.3a
 _ZN21CigiBaseEarthModelDef7GetCnvtER13CigiVersionIDRN16CigiCnvtInfoType18CigiCnvtInfoStructE@Base 3.3.3a
 (optional=gcc-4.8)_ZN21CigiBaseEarthModelDefD0Ev@Base 3.3.3a
 (optional=gcc-4.8)_ZN21CigiBaseEarthModelDefD1Ev@Base 3.3.3a
 (optional=gcc-4.8)_ZN21CigiBaseEarthModelDefD2Ev@Base 3.3.3a
 _ZN21CigiBaseSymbolLineDef12SetLineWidthEfb@Base 3.3.3a
 _ZN21CigiBaseSymbolLineDef12SetPrimitiveENS_12PrimitiveGrpEb@Base 3.3.3a
 _ZN21CigiBaseSymbolLineDef13ClearVerticesEv@Base 3.3.3a
 _ZN21CigiBaseSymbolLineDef14GetVertexCountEv@Base 3.3.3a
 _ZN21CigiBaseSymbolLineDef17GetTruePacketSizeER24CigiBaseVariableSizePckt@Base 3.3.3a
 _ZN21CigiBaseSymbolLineDef20SetStipplePatternLenEfb@Base 3.3.3a
 _ZN21CigiBaseSymbolLineDef7GetCnvtER13CigiVersionIDRN16CigiCnvtInfoType18CigiCnvtInfoStructE@Base 3.3.3a
 _ZN21CigiBaseSymbolLineDef9GetVertexEib@Base 3.3.3a
 _ZN21CigiBaseSymbolLineDefC1ERKS_@Base 3.3.3a
 _ZN21CigiBaseSymbolLineDefC1Ev@Base 3.3.3a
 _ZN21CigiBaseSymbolLineDefC2ERKS_@Base 3.3.3a
 _ZN21CigiBaseSymbolLineDefC2Ev@Base 3.3.3a
 _ZN21CigiBaseSymbolLineDefD0Ev@Base 3.3.3a
 _ZN21CigiBaseSymbolLineDefD1Ev@Base 3.3.3a
 _ZN21CigiBaseSymbolLineDefD2Ev@Base 3.3.3a
 _ZN21CigiBaseSymbolLineDefaSERKS_@Base 3.3.3a
 _ZN21CigiBaseSymbolTextDef11SetFontSizeEfb@Base 3.3.3a
 _ZN21CigiBaseSymbolTextDef12SetAlignmentENS_12AlignmentGrpEb@Base 3.3.3a
 _ZN21CigiBaseSymbolTextDef14SetOrientationENS_14OrientationGrpEb@Base 3.3.3a
 _ZN21CigiBaseSymbolTextDef17GetTruePacketSizeER24CigiBaseVariableSizePckt@Base 3.3.3a
 _ZN21CigiBaseSymbolTextDef7GetCnvtER13CigiVersionIDRN16CigiCnvtInfoType18CigiCnvtInfoStructE@Base 3.3.3a
 _ZN21CigiBaseSymbolTextDef7SetTextERKSsb@Base 3.3.3a
 _ZN21CigiBaseSymbolTextDefC1ERKS_@Base 3.3.3a
 _ZN21CigiBaseSymbolTextDefC1Ev@Base 3.3.3a
 _ZN21CigiBaseSymbolTextDefC2ERKS_@Base 3.3.3a
 _ZN21CigiBaseSymbolTextDefC2Ev@Base 3.3.3a
 _ZN21CigiBaseSymbolTextDefD0Ev@Base 3.3.3a
 _ZN21CigiBaseSymbolTextDefD1Ev@Base 3.3.3a
 _ZN21CigiBaseSymbolTextDefD2Ev@Base 3.3.3a
 _ZN21CigiBaseSymbolTextDefaSERKS_@Base 3.3.3a
 _ZN21CigiBaseTrajectoryDef7GetCnvtER13CigiVersionIDRN16CigiCnvtInfoType18CigiCnvtInfoStructE@Base 3.3.3a
 _ZN21CigiBaseTrajectoryDefC1Ev@Base 3.3.3a
 _ZN21CigiBaseTrajectoryDefC2Ev@Base 3.3.3a
 _ZN21CigiBaseTrajectoryDefD0Ev@Base 3.3.3a
 _ZN21CigiBaseTrajectoryDefD1Ev@Base 3.3.3a
 _ZN21CigiBaseTrajectoryDefD2Ev@Base 3.3.3a
 _ZN21CigiMotionTrackCtrlV36UnpackEPhbPv@Base 3.3.3a
 _ZN21CigiMotionTrackCtrlV3C1Ev@Base 3.3.3a
 _ZN21CigiMotionTrackCtrlV3C2Ev@Base 3.3.3a
 _ZN21CigiMotionTrackCtrlV3D0Ev@Base 3.3.3a
 _ZN21CigiMotionTrackCtrlV3D1Ev@Base 3.3.3a
 _ZN21CigiMotionTrackCtrlV3D2Ev@Base 3.3.3a
 _ZN21CigiShortCompCtrlV3_311SetCompDataEajN16CigiBaseCompCtrl7BytePosEb@Base 3.3.3a
 _ZN21CigiShortCompCtrlV3_311SetCompDataEdjb@Base 3.3.3a
 _ZN21CigiShortCompCtrlV3_311SetCompDataEfjb@Base 3.3.3a
 _ZN21CigiShortCompCtrlV3_311SetCompDataEhjN16CigiBaseCompCtrl7BytePosEb@Base 3.3.3a
 _ZN21CigiShortCompCtrlV3_311SetCompDataEijb@Base 3.3.3a
 _ZN21CigiShortCompCtrlV3_311SetCompDataEjjb@Base 3.3.3a
 _ZN21CigiShortCompCtrlV3_311SetCompDataEsjN16CigiBaseCompCtrl11HalfWordPosEb@Base 3.3.3a
 _ZN21CigiShortCompCtrlV3_311SetCompDataEtjN16CigiBaseCompCtrl11HalfWordPosEb@Base 3.3.3a
 (subst)_ZN21CigiShortCompCtrlV3_311SetCompDataE{uint64_t}jb@Base 3.3.3a
 _ZN21CigiShortCompCtrlV3_314CompClassV3xV1E@Base 3.3.3a
 _ZN21CigiShortCompCtrlV3_314CompClassV3xV2E@Base 3.3.3a
 _ZN21CigiShortCompCtrlV3_314GetI64CompDataEj@Base 3.3.3a
 _ZN21CigiShortCompCtrlV3_314SetCompClassV3EN16CigiBaseCompCtrl14CompClassV3GrpEb@Base 3.3.3a
 _ZN21CigiShortCompCtrlV3_315GetCharCompDataEjN16CigiBaseCompCtrl7BytePosE@Base 3.3.3a
 _ZN21CigiShortCompCtrlV3_315GetLongCompDataEj@Base 3.3.3a
 _ZN21CigiShortCompCtrlV3_316GetFloatCompDataEj@Base 3.3.3a
 _ZN21CigiShortCompCtrlV3_316GetShortCompDataEjN16CigiBaseCompCtrl11HalfWordPosE@Base 3.3.3a
 _ZN21CigiShortCompCtrlV3_316GetUCharCompDataEjN16CigiBaseCompCtrl7BytePosE@Base 3.3.3a
 _ZN21CigiShortCompCtrlV3_316GetULongCompDataEj@Base 3.3.3a
 _ZN21CigiShortCompCtrlV3_317GetDoubleCompDataEj@Base 3.3.3a
 _ZN21CigiShortCompCtrlV3_317GetUShortCompDataEjN16CigiBaseCompCtrl11HalfWordPosE@Base 3.3.3a
 _ZN21CigiShortCompCtrlV3_36UnpackEPhbPv@Base 3.3.3a
 _ZN21CigiShortCompCtrlV3_37GetCnvtER13CigiVersionIDRN16CigiCnvtInfoType18CigiCnvtInfoStructE@Base 3.3.3a
 _ZN21CigiShortCompCtrlV3_3C1Ev@Base 3.3.3a
 _ZN21CigiShortCompCtrlV3_3C2Ev@Base 3.3.3a
 _ZN21CigiShortCompCtrlV3_3D0Ev@Base 3.3.3a
 _ZN21CigiShortCompCtrlV3_3D1Ev@Base 3.3.3a
 _ZN21CigiShortCompCtrlV3_3D2Ev@Base 3.3.3a
 _ZN21CigiSymbolLineDefV3_312RemoveVertexEib@Base 3.3.3a
 _ZN21CigiSymbolLineDefV3_36UnpackEPhbPv@Base 3.3.3a
 _ZN21CigiSymbolLineDefV3_39AddVertexEv@Base 3.3.3a
 _ZN21CigiSymbolLineDefV3_3C1ERKS_@Base 3.3.3a
 _ZN21CigiSymbolLineDefV3_3C1Ev@Base 3.3.3a
 _ZN21CigiSymbolLineDefV3_3C2ERKS_@Base 3.3.3a
 _ZN21CigiSymbolLineDefV3_3C2Ev@Base 3.3.3a
 _ZN21CigiSymbolLineDefV3_3D0Ev@Base 3.3.3a
 _ZN21CigiSymbolLineDefV3_3D1Ev@Base 3.3.3a
 _ZN21CigiSymbolLineDefV3_3D2Ev@Base 3.3.3a
 _ZN21CigiSymbolLineDefV3_3aSERKS_@Base 3.3.3a
 _ZN21CigiSymbolTextDefV3_36UnpackEPhbPv@Base 3.3.3a
 _ZN21CigiSymbolTextDefV3_3C1ERKS_@Base 3.3.3a
 _ZN21CigiSymbolTextDefV3_3C1ERKSs@Base 3.3.3a
 _ZN21CigiSymbolTextDefV3_3C1Ev@Base 3.3.3a
 _ZN21CigiSymbolTextDefV3_3C2ERKS_@Base 3.3.3a
 _ZN21CigiSymbolTextDefV3_3C2ERKSs@Base 3.3.3a
 _ZN21CigiSymbolTextDefV3_3C2Ev@Base 3.3.3a
 _ZN21CigiSymbolTextDefV3_3D0Ev@Base 3.3.3a
 _ZN21CigiSymbolTextDefV3_3D1Ev@Base 3.3.3a
 _ZN21CigiSymbolTextDefV3_3D2Ev@Base 3.3.3a
 _ZN21CigiWeatherCondRespV36UnpackEPhbPv@Base 3.3.3a
 _ZN21CigiWeatherCondRespV3C1Ev@Base 3.3.3a
 _ZN21CigiWeatherCondRespV3C2Ev@Base 3.3.3a
 _ZN21CigiWeatherCondRespV3D0Ev@Base 3.3.3a
 _ZN21CigiWeatherCondRespV3D1Ev@Base 3.3.3a
 _ZN21CigiWeatherCondRespV3D2Ev@Base 3.3.3a
 _ZN22CigiBaseCollDetSegResp7GetCnvtER13CigiVersionIDRN16CigiCnvtInfoType18CigiCnvtInfoStructE@Base 3.3.3a
 _ZN22CigiBaseCollDetSegRespC1Ev@Base 3.3.3a
 _ZN22CigiBaseCollDetSegRespC2Ev@Base 3.3.3a
 _ZN22CigiBaseCollDetSegRespD0Ev@Base 3.3.3a
 _ZN22CigiBaseCollDetSegRespD1Ev@Base 3.3.3a
 _ZN22CigiBaseCollDetSegRespD2Ev@Base 3.3.3a
 _ZN22CigiBaseCollDetVolResp11SetCollTypeENS_11CollTypeGrpEb@Base 3.3.3a
 _ZN22CigiBaseCollDetVolResp7GetCnvtER13CigiVersionIDRN16CigiCnvtInfoType18CigiCnvtInfoStructE@Base 3.3.3a
 _ZN22CigiBaseCollDetVolRespC1Ev@Base 3.3.3a
 _ZN22CigiBaseCollDetVolRespC2Ev@Base 3.3.3a
 _ZN22CigiBaseCollDetVolRespD0Ev@Base 3.3.3a
 _ZN22CigiBaseCollDetVolRespD1Ev@Base 3.3.3a
 _ZN22CigiBaseCollDetVolRespD2Ev@Base 3.3.3a
 _ZN22CigiShortArtPartCtrlV36UnpackEPhbPv@Base 3.3.3a
 _ZN22CigiShortArtPartCtrlV3C1Ev@Base 3.3.3a
 _ZN22CigiShortArtPartCtrlV3C2Ev@Base 3.3.3a
 _ZN22CigiShortArtPartCtrlV3D0Ev@Base 3.3.3a
 _ZN22CigiShortArtPartCtrlV3D1Ev@Base 3.3.3a
 _ZN22CigiShortArtPartCtrlV3D2Ev@Base 3.3.3a
 _ZN23CigiBaseMotionTrackCtrl7GetCnvtER13CigiVersionIDRN16CigiCnvtInfoType18CigiCnvtInfoStructE@Base 3.3.3a
 _ZN23CigiBaseMotionTrackCtrl8SetScopeENS_8ScopeGrpEb@Base 3.3.3a
 _ZN23CigiBaseMotionTrackCtrlC1Ev@Base 3.3.3a
 _ZN23CigiBaseMotionTrackCtrlC2Ev@Base 3.3.3a
 _ZN23CigiBaseMotionTrackCtrlD0Ev@Base 3.3.3a
 _ZN23CigiBaseMotionTrackCtrlD1Ev@Base 3.3.3a
 _ZN23CigiBaseMotionTrackCtrlD2Ev@Base 3.3.3a
 _ZN23CigiBaseShortSymbolCtrl11SetRotationEifb@Base 3.3.3a
 _ZN23CigiBaseShortSymbolCtrl12SetDatumNoneEib@Base 3.3.3a
 _ZN23CigiBaseShortSymbolCtrl12SetFlashCtrlEN18CigiBaseSymbolCtrl12FlashCtrlGrpEb@Base 3.3.3a
 _ZN23CigiBaseShortSymbolCtrl12SetSurfaceIDEitb@Base 3.3.3a
 _ZN23CigiBaseShortSymbolCtrl12SetUPositionEifb@Base 3.3.3a
 _ZN23CigiBaseShortSymbolCtrl12SetVPositionEifb@Base 3.3.3a
 _ZN23CigiBaseShortSymbolCtrl13GetColorDatumEiRhS0_S0_S0_b@Base 3.3.3a
 _ZN23CigiBaseShortSymbolCtrl14SetAttachStateEN18CigiBaseSymbolCtrl14AttachStateGrpEb@Base 3.3.3a
 _ZN23CigiBaseShortSymbolCtrl14SetFlashPeriodEifb@Base 3.3.3a
 _ZN23CigiBaseShortSymbolCtrl14SetSymbolStateEN18CigiBaseSymbolCtrl14SymbolStateGrpEb@Base 3.3.3a
 _ZN23CigiBaseShortSymbolCtrl15SetInheritColorEN18CigiBaseSymbolCtrl15InheritColorGrpEb@Base 3.3.3a
 _ZN23CigiBaseShortSymbolCtrl17SetFlashDutyCycleEihb@Base 3.3.3a
 _ZN23CigiBaseShortSymbolCtrl17SetParentSymbolIDEitb@Base 3.3.3a
 _ZN23CigiBaseShortSymbolCtrl7GetCnvtER13CigiVersionIDRN16CigiCnvtInfoType18CigiCnvtInfoStructE@Base 3.3.3a
 _ZN23CigiBaseShortSymbolCtrl8SetColorEihhhhb@Base 3.3.3a
 _ZN23CigiBaseShortSymbolCtrl8SetLayerEihb@Base 3.3.3a
 _ZN23CigiBaseShortSymbolCtrl9SetScaleUEifb@Base 3.3.3a
 _ZN23CigiBaseShortSymbolCtrl9SetScaleVEifb@Base 3.3.3a
 _ZN23CigiBaseShortSymbolCtrlC1Ev@Base 3.3.3a
 _ZN23CigiBaseShortSymbolCtrlC2Ev@Base 3.3.3a
 _ZN23CigiBaseShortSymbolCtrlD0Ev@Base 3.3.3a
 _ZN23CigiBaseShortSymbolCtrlD1Ev@Base 3.3.3a
 _ZN23CigiBaseShortSymbolCtrlD2Ev@Base 3.3.3a
 _ZN23CigiBaseSymbolCircleDef12ClearCirclesEv@Base 3.3.3a
 _ZN23CigiBaseSymbolCircleDef12SetLineWidthEfb@Base 3.3.3a
 _ZN23CigiBaseSymbolCircleDef14GetCircleCountEv@Base 3.3.3a
 _ZN23CigiBaseSymbolCircleDef15SetDrawingStyleENS_15DrawingStyleGrpEb@Base 3.3.3a
 _ZN23CigiBaseSymbolCircleDef17GetTruePacketSizeER24CigiBaseVariableSizePckt@Base 3.3.3a
 _ZN23CigiBaseSymbolCircleDef20SetStipplePatternLenEfb@Base 3.3.3a
 _ZN23CigiBaseSymbolCircleDef7GetCnvtER13CigiVersionIDRN16CigiCnvtInfoType18CigiCnvtInfoStructE@Base 3.3.3a
 _ZN23CigiBaseSymbolCircleDef9GetCircleEib@Base 3.3.3a
 _ZN23CigiBaseSymbolCircleDefC1ERKS_@Base 3.3.3a
 _ZN23CigiBaseSymbolCircleDefC1Ev@Base 3.3.3a
 _ZN23CigiBaseSymbolCircleDefC2ERKS_@Base 3.3.3a
 _ZN23CigiBaseSymbolCircleDefC2Ev@Base 3.3.3a
 _ZN23CigiBaseSymbolCircleDefD0Ev@Base 3.3.3a
 _ZN23CigiBaseSymbolCircleDefD1Ev@Base 3.3.3a
 _ZN23CigiBaseSymbolCircleDefD2Ev@Base 3.3.3a
 _ZN23CigiBaseSymbolCircleDefaSERKS_@Base 3.3.3a
 _ZN23CigiBaseWeatherCondResp10SetWindDirEfb@Base 3.3.3a
 _ZN23CigiBaseWeatherCondResp11SetHumidityEhb@Base 3.3.3a
 _ZN23CigiBaseWeatherCondResp12SetBaroPressEfb@Base 3.3.3a
 _ZN23CigiBaseWeatherCondResp13SetVisibilityEfb@Base 3.3.3a
 _ZN23CigiBaseWeatherCondResp14SetHorizWindSpEfb@Base 3.3.3a
 _ZN23CigiBaseWeatherCondResp7GetCnvtER13CigiVersionIDRN16CigiCnvtInfoType18CigiCnvtInfoStructE@Base 3.3.3a
 _ZN23CigiBaseWeatherCondRespC1Ev@Base 3.3.3a
 _ZN23CigiBaseWeatherCondRespC2Ev@Base 3.3.3a
 _ZN23CigiBaseWeatherCondRespD0Ev@Base 3.3.3a
 _ZN23CigiBaseWeatherCondRespD1Ev@Base 3.3.3a
 _ZN23CigiBaseWeatherCondRespD2Ev@Base 3.3.3a
 _ZN23CigiEventNotificationV36UnpackEPhbPv@Base 3.3.3a
 _ZN23CigiEventNotificationV3C1Ev@Base 3.3.3a
 _ZN23CigiEventNotificationV3C2Ev@Base 3.3.3a
 _ZN23CigiEventNotificationV3D0Ev@Base 3.3.3a
 _ZN23CigiEventNotificationV3D1Ev@Base 3.3.3a
 _ZN23CigiEventNotificationV3D2Ev@Base 3.3.3a
 _ZN23CigiShortSymbolCtrlV3_36UnpackEPhbPv@Base 3.3.3a
 _ZN23CigiShortSymbolCtrlV3_3C1Ev@Base 3.3.3a
 _ZN23CigiShortSymbolCtrlV3_3C2Ev@Base 3.3.3a
 _ZN23CigiShortSymbolCtrlV3_3D0Ev@Base 3.3.3a
 _ZN23CigiShortSymbolCtrlV3_3D1Ev@Base 3.3.3a
 _ZN23CigiShortSymbolCtrlV3_3D2Ev@Base 3.3.3a
 _ZN23CigiSymbolCircleDefV3_312RemoveCircleEib@Base 3.3.3a
 _ZN23CigiSymbolCircleDefV3_36UnpackEPhbPv@Base 3.3.3a
 _ZN23CigiSymbolCircleDefV3_39AddCircleEv@Base 3.3.3a
 _ZN23CigiSymbolCircleDefV3_3C1ERKS_@Base 3.3.3a
 _ZN23CigiSymbolCircleDefV3_3C1Ev@Base 3.3.3a
 _ZN23CigiSymbolCircleDefV3_3C2ERKS_@Base 3.3.3a
 _ZN23CigiSymbolCircleDefV3_3C2Ev@Base 3.3.3a
 _ZN23CigiSymbolCircleDefV3_3D0Ev@Base 3.3.3a
 _ZN23CigiSymbolCircleDefV3_3D1Ev@Base 3.3.3a
 _ZN23CigiSymbolCircleDefV3_3D2Ev@Base 3.3.3a
 _ZN23CigiSymbolCircleDefV3_3aSERKS_@Base 3.3.3a
 _ZN24CigiBaseCircleSymbolData11SetEndAngleEfb@Base 3.3.3a
 _ZN24CigiBaseCircleSymbolData13SetStartAngleEfb@Base 3.3.3a
 _ZN24CigiBaseCircleSymbolData14SetInnerRadiusEfb@Base 3.3.3a
 _ZN24CigiBaseCircleSymbolData9SetRadiusEfb@Base 3.3.3a
 _ZN24CigiBaseCircleSymbolDataC1Ev@Base 3.3.3a
 _ZN24CigiBaseCircleSymbolDataC2Ev@Base 3.3.3a
 _ZN24CigiBaseCircleSymbolDataD0Ev@Base 3.3.3a
 _ZN24CigiBaseCircleSymbolDataD1Ev@Base 3.3.3a
 _ZN24CigiBaseCircleSymbolDataD2Ev@Base 3.3.3a
 _ZN24CigiBaseShortArtPartCtrl13SetDofSelect1ENS_12DofSelectGrpEb@Base 3.3.3a
 _ZN24CigiBaseShortArtPartCtrl13SetDofSelect2ENS_12DofSelectGrpEb@Base 3.3.3a
 _ZN24CigiBaseShortArtPartCtrl17SpecialConversionER13CigiVersionIDhP17CigiArtPartCtrlV3@Base 3.3.3a
 _ZN24CigiBaseShortArtPartCtrl7GetCnvtER13CigiVersionIDRN16CigiCnvtInfoType18CigiCnvtInfoStructE@Base 3.3.3a
 _ZN24CigiBaseShortArtPartCtrlC1Ev@Base 3.3.3a
 _ZN24CigiBaseShortArtPartCtrlC2Ev@Base 3.3.3a
 _ZN24CigiBaseShortArtPartCtrlD0Ev@Base 3.3.3a
 _ZN24CigiBaseShortArtPartCtrlD1Ev@Base 3.3.3a
 _ZN24CigiBaseShortArtPartCtrlD2Ev@Base 3.3.3a
 (optional=gcc-4.9)_ZN24CigiBaseSignalProcessing10OnCompCtrlEP14CigiBasePacket@Base 3.3.3a
 (optional=gcc-4.9)_ZN24CigiBaseSignalProcessing10OnLosXRespEP14CigiBasePacket@Base 3.3.3a
 (optional=gcc-4.9)_ZN24CigiBaseSignalProcessing10OnRateCtrlEP14CigiBasePacket@Base 3.3.3a
 (optional=gcc-4.9)_ZN24CigiBaseSignalProcessing10OnViewCtrlEP14CigiBasePacket@Base 3.3.3a
 (optional=gcc-4.9)_ZN24CigiBaseSignalProcessing10OnWaveCtrlEP14CigiBasePacket@Base 3.3.3a
 (optional=gcc-4.9)_ZN24CigiBaseSignalProcessing11OnAtmosCtrlEP14CigiBasePacket@Base 3.3.3a
 (optional=gcc-4.9)_ZN24CigiBaseSignalProcessing11OnHatHotReqEP14CigiBasePacket@Base 3.3.3a
 (optional=gcc-4.9)_ZN24CigiBaseSignalProcessing11OnLosSegReqEP14CigiBasePacket@Base 3.3.3a
 (optional=gcc-4.9)_ZN24CigiBaseSignalProcessing12OnEntityCtrlEP14CigiBasePacket@Base 3.3.3a
 (optional=gcc-4.9)_ZN24CigiBaseSignalProcessing12OnEnvCondReqEP14CigiBasePacket@Base 3.3.3a
 (optional=gcc-4.9)_ZN24CigiBaseSignalProcessing12OnEnvRgnCtrlEP14CigiBasePacket@Base 3.3.3a
 (optional=gcc-4.9)_ZN24CigiBaseSignalProcessing12OnHatHotRespEP14CigiBasePacket@Base 3.3.3a
 (optional=gcc-4.9)_ZN24CigiBaseSignalProcessing12OnLosVectReqEP14CigiBasePacket@Base 3.3.3a
 (optional=gcc-4.9)_ZN24CigiBaseSignalProcessing12OnPostionReqEP14CigiBasePacket@Base 3.3.3a
 (optional=gcc-4.9)_ZN24CigiBaseSignalProcessing12OnSensorCtrlEP14CigiBasePacket@Base 3.3.3a
 (optional=gcc-4.9)_ZN24CigiBaseSignalProcessing12OnSensorRespEP14CigiBasePacket@Base 3.3.3a
 (optional=gcc-4.9)_ZN24CigiBaseSignalProcessing12OnSpecEffDefEP14CigiBasePacket@Base 3.3.3a
 (optional=gcc-4.9)_ZN24CigiBaseSignalProcessing12OnSymbolCtrlEP14CigiBasePacket@Base 3.3.3a
 (optional=gcc-4.9)_ZN24CigiBaseSignalProcessing12OnTrajectoryEP14CigiBasePacket@Base 3.3.3a
 (optional=gcc-4.9)_ZN24CigiBaseSignalProcessing13OnAerosolRespEP14CigiBasePacket@Base 3.3.3a
 (optional=gcc-4.9)_ZN24CigiBaseSignalProcessing13OnArtPartCtrlEP14CigiBasePacket@Base 3.3.3a
 (optional=gcc-4.9)_ZN24CigiBaseSignalProcessing13OnHatHotXRespEP14CigiBasePacket@Base 3.3.3a
 (optional=gcc-4.9)_ZN24CigiBaseSignalProcessing13OnSensorXRespEP14CigiBasePacket@Base 3.3.3a
 (optional=gcc-4.9)_ZN24CigiBaseSignalProcessing13OnSymbolCloneEP14CigiBasePacket@Base 3.3.3a
 (optional=gcc-4.9)_ZN24CigiBaseSignalProcessing13OnWeatherCtrlEP14CigiBasePacket@Base 3.3.3a
 (optional=gcc-4.9)_ZN24CigiBaseSignalProcessing14OnPositionRespEP14CigiBasePacket@Base 3.3.3a
 (optional=gcc-4.9)_ZN24CigiBaseSignalProcessing14OnUnrecognizedEP14CigiBasePacket@Base 3.3.3a
 (optional=gcc-4.9)_ZN24CigiBaseSignalProcessing15OnAnimationStopEP14CigiBasePacket@Base 3.3.3a
 (optional=gcc-4.9)_ZN24CigiBaseSignalProcessing15OnCelestialCtrlEP14CigiBasePacket@Base 3.3.3a
 (optional=gcc-4.9)_ZN24CigiBaseSignalProcessing15OnCollDetSegDefEP14CigiBasePacket@Base 3.3.3a
 (optional=gcc-4.9)_ZN24CigiBaseSignalProcessing15OnCollDetVolDefEP14CigiBasePacket@Base 3.3.3a
 (optional=gcc-4.9)_ZN24CigiBaseSignalProcessing15OnEarthModelDefEP14CigiBasePacket@Base 3.3.3a
 (optional=gcc-4.9)_ZN24CigiBaseSignalProcessing15OnShortCompCtrlEP14CigiBasePacket@Base 3.3.3a
 (optional=gcc-4.9)_ZN24CigiBaseSignalProcessing15OnSymbolLineDefEP14CigiBasePacket@Base 3.3.3a
 (optional=gcc-4.9)_ZN24CigiBaseSignalProcessing15OnSymbolTextDefEP14CigiBasePacket@Base 3.3.3a
 (optional=gcc-4.9)_ZN24CigiBaseSignalProcessing16OnCollDetSegRespEP14CigiBasePacket@Base 3.3.3a
 (optional=gcc-4.9)_ZN24CigiBaseSignalProcessing16OnCollDetVolRespEP14CigiBasePacket@Base 3.3.3a
 (optional=gcc-4.9)_ZN24CigiBaseSignalProcessing17OnMotionTrackCtrlEP14CigiBasePacket@Base 3.3.3a
 (optional=gcc-4.9)_ZN24CigiBaseSignalProcessing17OnShortSymbolCtrlEP14CigiBasePacket@Base 3.3.3a
 (optional=gcc-4.9)_ZN24CigiBaseSignalProcessing17OnSymbolCircleDefEP14CigiBasePacket@Base 3.3.3a
 (optional=gcc-4.9)_ZN24CigiBaseSignalProcessing17OnWeatherCondRespEP14CigiBasePacket@Base 3.3.3a
 (optional=gcc-4.9)_ZN24CigiBaseSignalProcessing18OnShortArtPartCtrlEP14CigiBasePacket@Base 3.3.3a
 (optional=gcc-4.9)_ZN24CigiBaseSignalProcessing18OnSymbolSurfaceDefEP14CigiBasePacket@Base 3.3.3a
 (optional=gcc-4.9)_ZN24CigiBaseSignalProcessing19OnEventNotificationEP14CigiBasePacket@Base 3.3.3a
 (optional=gcc-4.9)_ZN24CigiBaseSignalProcessing21OnConfClampEntityCtrlEP14CigiBasePacket@Base 3.3.3a
 (optional=gcc-4.9)_ZN24CigiBaseSignalProcessing21OnMaritimeSurfaceCtrlEP14CigiBasePacket@Base 3.3.3a
 (optional=gcc-4.9)_ZN24CigiBaseSignalProcessing21OnMaritimeSurfaceRespEP14CigiBasePacket@Base 3.3.3a
 (optional=gcc-4.9)_ZN24CigiBaseSignalProcessing24OnTerrestrialSurfaceCtrlEP14CigiBasePacket@Base 3.3.3a
 (optional=gcc-4.9)_ZN24CigiBaseSignalProcessing24OnTerrestrialSurfaceRespEP14CigiBasePacket@Base 3.3.3a
 (optional=gcc-4.9)_ZN24CigiBaseSignalProcessing5OnSOFEP14CigiBasePacket@Base 3.3.3a
 (optional=gcc-4.9)_ZN24CigiBaseSignalProcessing7OnIGMsgEP14CigiBasePacket@Base 3.3.3a
 (optional=gcc-4.9)_ZN24CigiBaseSignalProcessing8OnHatReqEP14CigiBasePacket@Base 3.3.3a
 (optional=gcc-4.9)_ZN24CigiBaseSignalProcessing8OnHotReqEP14CigiBasePacket@Base 3.3.3a
 (optional=gcc-4.9)_ZN24CigiBaseSignalProcessing8OnIGCtrlEP14CigiBasePacket@Base 3.3.3a
 (optional=gcc-4.9)_ZN24CigiBaseSignalProcessing9OnEnvCtrlEP14CigiBasePacket@Base 3.3.3a
 (optional=gcc-4.9)_ZN24CigiBaseSignalProcessing9OnHatRespEP14CigiBasePacket@Base 3.3.3a
 (optional=gcc-4.9)_ZN24CigiBaseSignalProcessing9OnHotRespEP14CigiBasePacket@Base 3.3.3a
 (optional=gcc-4.9)_ZN24CigiBaseSignalProcessing9OnLosRespEP14CigiBasePacket@Base 3.3.3a
 (optional=gcc-4.9)_ZN24CigiBaseSignalProcessing9OnViewDefEP14CigiBasePacket@Base 3.3.3a
 _ZN24CigiBaseSymbolSurfaceDef11SetAttachedENS_14AttachStateGrpEb@Base 3.3.3a
 _ZN24CigiBaseSymbolSurfaceDef15SetSurfaceStateENS_8StateGrpEb@Base 3.3.3a
 _ZN24CigiBaseSymbolSurfaceDef17SetBillboardStateENS_17BillboardStateGrpEb@Base 3.3.3a
 _ZN24CigiBaseSymbolSurfaceDef18SetTopEdgePositionEfb@Base 3.3.3a
 _ZN24CigiBaseSymbolSurfaceDef19SetLeftEdgePositionEfb@Base 3.3.3a
 _ZN24CigiBaseSymbolSurfaceDef20SetPerspectiveGrowthENS_25PerspectiveGrowthStateGrpEb@Base 3.3.3a
 _ZN24CigiBaseSymbolSurfaceDef20SetRightEdgePositionEfb@Base 3.3.3a
 _ZN24CigiBaseSymbolSurfaceDef21SetBottomEdgePositionEfb@Base 3.3.3a
 _ZN24CigiBaseSymbolSurfaceDef6SetYawEfb@Base 3.3.3a
 _ZN24CigiBaseSymbolSurfaceDef7GetCnvtER13CigiVersionIDRN16CigiCnvtInfoType18CigiCnvtInfoStructE@Base 3.3.3a
 _ZN24CigiBaseSymbolSurfaceDef7SetRollEfb@Base 3.3.3a
 _ZN24CigiBaseSymbolSurfaceDef8SetPitchEfb@Base 3.3.3a
 _ZN24CigiBaseSymbolSurfaceDefC1Ev@Base 3.3.3a
 _ZN24CigiBaseSymbolSurfaceDefC2Ev@Base 3.3.3a
 _ZN24CigiBaseSymbolSurfaceDefD0Ev@Base 3.3.3a
 _ZN24CigiBaseSymbolSurfaceDefD1Ev@Base 3.3.3a
 _ZN24CigiBaseSymbolSurfaceDefD2Ev@Base 3.3.3a
 (optional=gcc-4.8)_ZN24CigiBaseVariableSizePcktD0Ev@Base 3.3.3a
 (optional=gcc-4.8)_ZN24CigiBaseVariableSizePcktD1Ev@Base 3.3.3a
 (optional=gcc-4.8)_ZN24CigiBaseVariableSizePcktD2Ev@Base 3.3.3a
 (optional=gcc-4.8)_ZN24CigiBaseVertexSymbolDataD0Ev@Base 3.3.3a
 (optional=gcc-4.8)_ZN24CigiBaseVertexSymbolDataD1Ev@Base 3.3.3a
 (optional=gcc-4.8)_ZN24CigiBaseVertexSymbolDataD2Ev@Base 3.3.3a
 _ZN24CigiCircleSymbolDataV3_36UnpackEPhb@Base 3.3.3a
 _ZN24CigiCircleSymbolDataV3_3C1Ev@Base 3.3.3a
 _ZN24CigiCircleSymbolDataV3_3C2Ev@Base 3.3.3a
 _ZN24CigiCircleSymbolDataV3_3D0Ev@Base 3.3.3a
 _ZN24CigiCircleSymbolDataV3_3D1Ev@Base 3.3.3a
 _ZN24CigiCircleSymbolDataV3_3D2Ev@Base 3.3.3a
 _ZN24CigiNullPointerExceptionC1Ev@Base 3.3.3a
 _ZN24CigiNullPointerExceptionC2Ev@Base 3.3.3a
 _ZN24CigiNullPointerExceptionD0Ev@Base 3.3.3a
 _ZN24CigiNullPointerExceptionD1Ev@Base 3.3.3a
 _ZN24CigiNullPointerExceptionD2Ev@Base 3.3.3a
 _ZN24CigiSymbolSurfaceDefV3_36UnpackEPhbPv@Base 3.3.3a
 _ZN24CigiSymbolSurfaceDefV3_3C1Ev@Base 3.3.3a
 _ZN24CigiSymbolSurfaceDefV3_3C2Ev@Base 3.3.3a
 _ZN24CigiSymbolSurfaceDefV3_3D0Ev@Base 3.3.3a
 _ZN24CigiSymbolSurfaceDefV3_3D1Ev@Base 3.3.3a
 _ZN24CigiSymbolSurfaceDefV3_3D2Ev@Base 3.3.3a
 _ZN24CigiVertexSymbolDataV3_36UnpackEPhb@Base 3.3.3a
 _ZN24CigiVertexSymbolDataV3_3C1Ev@Base 3.3.3a
 _ZN24CigiVertexSymbolDataV3_3C2Ev@Base 3.3.3a
 _ZN24CigiVertexSymbolDataV3_3D0Ev@Base 3.3.3a
 _ZN24CigiVertexSymbolDataV3_3D1Ev@Base 3.3.3a
 _ZN24CigiVertexSymbolDataV3_3D2Ev@Base 3.3.3a
 _ZN25CigiBaseEventNotification12SetEventDataEfib@Base 3.3.3a
 _ZN25CigiBaseEventNotification12SetEventDataEiib@Base 3.3.3a
 _ZN25CigiBaseEventNotification12SetEventDataEjib@Base 3.3.3a
 _ZN25CigiBaseEventNotification13GetFEventDataEi@Base 3.3.3a
 _ZN25CigiBaseEventNotification13GetLEventDataEi@Base 3.3.3a
 _ZN25CigiBaseEventNotification14GetULEventDataEi@Base 3.3.3a
 _ZN25CigiBaseEventNotification7GetCnvtER13CigiVersionIDRN16CigiCnvtInfoType18CigiCnvtInfoStructE@Base 3.3.3a
 _ZN25CigiBaseEventNotificationC1Ev@Base 3.3.3a
 _ZN25CigiBaseEventNotificationC2Ev@Base 3.3.3a
 _ZN25CigiBaseEventNotificationD0Ev@Base 3.3.3a
 _ZN25CigiBaseEventNotificationD1Ev@Base 3.3.3a
 _ZN25CigiBaseEventNotificationD2Ev@Base 3.3.3a
 _ZN25CigiConfClampEntityCtrlV36UnpackEPhbPv@Base 3.3.3a
 _ZN25CigiConfClampEntityCtrlV3C1Ev@Base 3.3.3a
 _ZN25CigiConfClampEntityCtrlV3C2Ev@Base 3.3.3a
 _ZN25CigiConfClampEntityCtrlV3D0Ev@Base 3.3.3a
 _ZN25CigiConfClampEntityCtrlV3D1Ev@Base 3.3.3a
 _ZN25CigiConfClampEntityCtrlV3D2Ev@Base 3.3.3a
 _ZN25CigiMaritimeSurfaceCtrlV36UnpackEPhbPv@Base 3.3.3a
 _ZN25CigiMaritimeSurfaceCtrlV3C1Ev@Base 3.3.3a
 _ZN25CigiMaritimeSurfaceCtrlV3C2Ev@Base 3.3.3a
 _ZN25CigiMaritimeSurfaceCtrlV3D0Ev@Base 3.3.3a
 _ZN25CigiMaritimeSurfaceCtrlV3D1Ev@Base 3.3.3a
 _ZN25CigiMaritimeSurfaceCtrlV3D2Ev@Base 3.3.3a
 _ZN25CigiMaritimeSurfaceRespV36UnpackEPhbPv@Base 3.3.3a
 _ZN25CigiMaritimeSurfaceRespV3C1Ev@Base 3.3.3a
 _ZN25CigiMaritimeSurfaceRespV3C2Ev@Base 3.3.3a
 _ZN25CigiMaritimeSurfaceRespV3D0Ev@Base 3.3.3a
 _ZN25CigiMaritimeSurfaceRespV3D1Ev@Base 3.3.3a
 _ZN25CigiMaritimeSurfaceRespV3D2Ev@Base 3.3.3a
 _ZN27CigiBaseConfClampEntityCtrl6SetLatEdb@Base 3.3.3a
 _ZN27CigiBaseConfClampEntityCtrl6SetLonEdb@Base 3.3.3a
 _ZN27CigiBaseConfClampEntityCtrl6SetYawEfb@Base 3.3.3a
 _ZN27CigiBaseConfClampEntityCtrl7GetCnvtER13CigiVersionIDRN16CigiCnvtInfoType18CigiCnvtInfoStructE@Base 3.3.3a
 _ZN27CigiBaseConfClampEntityCtrlC1Ev@Base 3.3.3a
 _ZN27CigiBaseConfClampEntityCtrlC2Ev@Base 3.3.3a
 _ZN27CigiBaseConfClampEntityCtrlD0Ev@Base 3.3.3a
 _ZN27CigiBaseConfClampEntityCtrlD1Ev@Base 3.3.3a
 _ZN27CigiBaseConfClampEntityCtrlD2Ev@Base 3.3.3a
 _ZN27CigiBaseMaritimeSurfaceCtrl10SetClarityEfb@Base 3.3.3a
 _ZN27CigiBaseMaritimeSurfaceCtrl7GetCnvtER13CigiVersionIDRN16CigiCnvtInfoType18CigiCnvtInfoStructE@Base 3.3.3a
 _ZN27CigiBaseMaritimeSurfaceCtrl8SetScopeENS_8ScopeGrpEb@Base 3.3.3a
 _ZN27CigiBaseMaritimeSurfaceCtrlC1Ev@Base 3.3.3a
 _ZN27CigiBaseMaritimeSurfaceCtrlC2Ev@Base 3.3.3a
 _ZN27CigiBaseMaritimeSurfaceCtrlD0Ev@Base 3.3.3a
 _ZN27CigiBaseMaritimeSurfaceCtrlD1Ev@Base 3.3.3a
 _ZN27CigiBaseMaritimeSurfaceCtrlD2Ev@Base 3.3.3a
 _ZN27CigiBaseMaritimeSurfaceResp10SetClarityEfb@Base 3.3.3a
 _ZN27CigiBaseMaritimeSurfaceResp7GetCnvtER13CigiVersionIDRN16CigiCnvtInfoType18CigiCnvtInfoStructE@Base 3.3.3a
 _ZN27CigiBaseMaritimeSurfaceRespC1Ev@Base 3.3.3a
 _ZN27CigiBaseMaritimeSurfaceRespC2Ev@Base 3.3.3a
 _ZN27CigiBaseMaritimeSurfaceRespD0Ev@Base 3.3.3a
 _ZN27CigiBaseMaritimeSurfaceRespD1Ev@Base 3.3.3a
 _ZN27CigiBaseMaritimeSurfaceRespD2Ev@Base 3.3.3a
 _ZN27CigiImproperPacketExceptionC1Ev@Base 3.3.3a
 _ZN27CigiImproperPacketExceptionC2Ev@Base 3.3.3a
 _ZN27CigiImproperPacketExceptionD0Ev@Base 3.3.3a
 _ZN27CigiImproperPacketExceptionD1Ev@Base 3.3.3a
 _ZN27CigiImproperPacketExceptionD2Ev@Base 3.3.3a
 _ZN28CigiTerrestrialSurfaceCtrlV36UnpackEPhbPv@Base 3.3.3a
 _ZN28CigiTerrestrialSurfaceCtrlV3C1Ev@Base 3.3.3a
 _ZN28CigiTerrestrialSurfaceCtrlV3C2Ev@Base 3.3.3a
 _ZN28CigiTerrestrialSurfaceCtrlV3D0Ev@Base 3.3.3a
 _ZN28CigiTerrestrialSurfaceCtrlV3D1Ev@Base 3.3.3a
 _ZN28CigiTerrestrialSurfaceCtrlV3D2Ev@Base 3.3.3a
 _ZN28CigiTerrestrialSurfaceRespV36UnpackEPhbPv@Base 3.3.3a
 _ZN28CigiTerrestrialSurfaceRespV3C1Ev@Base 3.3.3a
 _ZN28CigiTerrestrialSurfaceRespV3C2Ev@Base 3.3.3a
 _ZN28CigiTerrestrialSurfaceRespV3D0Ev@Base 3.3.3a
 _ZN28CigiTerrestrialSurfaceRespV3D1Ev@Base 3.3.3a
 _ZN28CigiTerrestrialSurfaceRespV3D2Ev@Base 3.3.3a
 _ZN28CigiValueOutOfRangeExceptionC1EPKcdS1_d@Base 3.3.3a
 _ZN28CigiValueOutOfRangeExceptionC1EPKcddd@Base 3.3.3a
 _ZN28CigiValueOutOfRangeExceptionC1EPKciii@Base 3.3.3a
 _ZN28CigiValueOutOfRangeExceptionC2EPKcdS1_d@Base 3.3.3a
 _ZN28CigiValueOutOfRangeExceptionC2EPKcddd@Base 3.3.3a
 _ZN28CigiValueOutOfRangeExceptionC2EPKciii@Base 3.3.3a
 _ZN28CigiValueOutOfRangeExceptionD0Ev@Base 3.3.3a
 _ZN28CigiValueOutOfRangeExceptionD1Ev@Base 3.3.3a
 _ZN28CigiValueOutOfRangeExceptionD2Ev@Base 3.3.3a
 _ZN29CigiMissingIgControlExceptionD0Ev@Base 3.3.3a
 _ZN29CigiMissingIgControlExceptionD1Ev@Base 3.3.3a
 _ZN29CigiMissingIgControlExceptionD2Ev@Base 3.3.3a
 _ZN30CigiBaseTerrestrialSurfaceCtrl11SetCoverageEhb@Base 3.3.3a
 _ZN30CigiBaseTerrestrialSurfaceCtrl11SetSeverityEhb@Base 3.3.3a
 _ZN30CigiBaseTerrestrialSurfaceCtrl7GetCnvtER13CigiVersionIDRN16CigiCnvtInfoType18CigiCnvtInfoStructE@Base 3.3.3a
 _ZN30CigiBaseTerrestrialSurfaceCtrl8SetScopeENS_8ScopeGrpEb@Base 3.3.3a
 _ZN30CigiBaseTerrestrialSurfaceCtrlC1Ev@Base 3.3.3a
 _ZN30CigiBaseTerrestrialSurfaceCtrlC2Ev@Base 3.3.3a
 _ZN30CigiBaseTerrestrialSurfaceCtrlD0Ev@Base 3.3.3a
 _ZN30CigiBaseTerrestrialSurfaceCtrlD1Ev@Base 3.3.3a
 _ZN30CigiBaseTerrestrialSurfaceCtrlD2Ev@Base 3.3.3a
 _ZN30CigiBaseTerrestrialSurfaceResp7GetCnvtER13CigiVersionIDRN16CigiCnvtInfoType18CigiCnvtInfoStructE@Base 3.3.3a
 (optional=gcc-4.8)_ZN30CigiBaseTerrestrialSurfaceRespD0Ev@Base 3.3.3a
 (optional=gcc-4.8)_ZN30CigiBaseTerrestrialSurfaceRespD1Ev@Base 3.3.3a
 (optional=gcc-4.8)_ZN30CigiBaseTerrestrialSurfaceRespD2Ev@Base 3.3.3a
 _ZN32CigiCalledOutOfSequenceExceptionC1Ev@Base 3.3.3a
 _ZN32CigiCalledOutOfSequenceExceptionC2Ev@Base 3.3.3a
 _ZN32CigiCalledOutOfSequenceExceptionD0Ev@Base 3.3.3a
 _ZN32CigiCalledOutOfSequenceExceptionD1Ev@Base 3.3.3a
 _ZN32CigiCalledOutOfSequenceExceptionD2Ev@Base 3.3.3a
 _ZN32CigiMissingStartOfFrameExceptionD0Ev@Base 3.3.3a
 _ZN32CigiMissingStartOfFrameExceptionD1Ev@Base 3.3.3a
 _ZN32CigiMissingStartOfFrameExceptionD2Ev@Base 3.3.3a
 _ZN6CigiIO4RecvEv@Base 3.3.3a
 _ZN6CigiIO4SendEv@Base 3.3.3a
 _ZN6CigiIO7ReceiveEv@Base 3.3.3a
 _ZN6CigiIOC1ER15CigiIncomingMsgR15CigiOutgoingMsg@Base 3.3.3a
 _ZN6CigiIOC2ER15CigiIncomingMsgR15CigiOutgoingMsg@Base 3.3.3a
 _ZN6CigiIOD0Ev@Base 3.3.3a
 _ZN6CigiIOD1Ev@Base 3.3.3a
 _ZN6CigiIOD2Ev@Base 3.3.3a
 _ZN9CigiSOFV16UnpackEPhbPv@Base 3.3.3a
 _ZN9CigiSOFV1C1Ev@Base 3.3.3a
 _ZN9CigiSOFV1C2Ev@Base 3.3.3a
 _ZN9CigiSOFV1D0Ev@Base 3.3.3a
 _ZN9CigiSOFV1D1Ev@Base 3.3.3a
 _ZN9CigiSOFV1D2Ev@Base 3.3.3a
 _ZN9CigiSOFV212SetTimeStampEfb@Base 3.3.3a
 _ZN9CigiSOFV26UnpackEPhbPv@Base 3.3.3a
 _ZN9CigiSOFV2C1Ev@Base 3.3.3a
 _ZN9CigiSOFV2C2Ev@Base 3.3.3a
 _ZN9CigiSOFV2D0Ev@Base 3.3.3a
 _ZN9CigiSOFV2D1Ev@Base 3.3.3a
 _ZN9CigiSOFV2D2Ev@Base 3.3.3a
 _ZN9CigiSOFV312SetTimeStampEjb@Base 3.3.3a
 _ZN9CigiSOFV316SetEarthRefModelEN11CigiBaseSOF16EarthRefModelGrpEb@Base 3.3.3a
 _ZN9CigiSOFV36UnpackEPhbPv@Base 3.3.3a
 _ZN9CigiSOFV3C1Ev@Base 3.3.3a
 _ZN9CigiSOFV3C2Ev@Base 3.3.3a
 _ZN9CigiSOFV3D0Ev@Base 3.3.3a
 _ZN9CigiSOFV3D1Ev@Base 3.3.3a
 _ZN9CigiSOFV3D2Ev@Base 3.3.3a
 _ZNK11CigiIGMsgV24PackEP14CigiBasePacketPhPv@Base 3.3.3a
 _ZNK11CigiIGMsgV34PackEP14CigiBasePacketPhPv@Base 3.3.3a
 _ZNK11CigiSOFV3_24PackEP14CigiBasePacketPhPv@Base 3.3.3a
 _ZNK12CigiHatReqV14PackEP14CigiBasePacketPhPv@Base 3.3.3a
 _ZNK12CigiHatReqV24PackEP14CigiBasePacketPhPv@Base 3.3.3a
 _ZNK12CigiHotReqV24PackEP14CigiBasePacketPhPv@Base 3.3.3a
 _ZNK12CigiIGCtrlV14PackEP14CigiBasePacketPhPv@Base 3.3.3a
 _ZNK12CigiIGCtrlV24PackEP14CigiBasePacketPhPv@Base 3.3.3a
 _ZNK12CigiIGCtrlV34PackEP14CigiBasePacketPhPv@Base 3.3.3a
 _ZNK13CigiEnvCtrlV14PackEP14CigiBasePacketPhPv@Base 3.3.3a
 _ZNK13CigiEnvCtrlV18FillHoldEP15CigiBaseEnvCtrl@Base 3.3.3a
 _ZNK13CigiEnvCtrlV24PackEP14CigiBasePacketPhPv@Base 3.3.3a
 _ZNK13CigiEnvCtrlV28FillHoldEP15CigiBaseEnvCtrl@Base 3.3.3a
 _ZNK13CigiException4whatEv@Base 3.3.3a
 _ZNK13CigiHatRespV14PackEP14CigiBasePacketPhPv@Base 3.3.3a
 _ZNK13CigiHatRespV24PackEP14CigiBasePacketPhPv@Base 3.3.3a
 _ZNK13CigiHotRespV24PackEP14CigiBasePacketPhPv@Base 3.3.3a
 _ZNK13CigiLosRespV14PackEP14CigiBasePacketPhPv@Base 3.3.3a
 _ZNK13CigiLosRespV24PackEP14CigiBasePacketPhPv@Base 3.3.3a
 _ZNK13CigiLosRespV34PackEP14CigiBasePacketPhPv@Base 3.3.3a
 _ZNK13CigiViewDefV14PackEP14CigiBasePacketPhPv@Base 3.3.3a
 _ZNK13CigiViewDefV24PackEP14CigiBasePacketPhPv@Base 3.3.3a
 _ZNK13CigiViewDefV34PackEP14CigiBasePacketPhPv@Base 3.3.3a
 _ZNK14CigiCompCtrlV14PackEP14CigiBasePacketPhPv@Base 3.3.3a
 _ZNK14CigiCompCtrlV24PackEP14CigiBasePacketPhPv@Base 3.3.3a
 _ZNK14CigiCompCtrlV34PackEP14CigiBasePacketPhPv@Base 3.3.3a
 _ZNK14CigiIGCtrlV3_24PackEP14CigiBasePacketPhPv@Base 3.3.3a
 _ZNK14CigiIGCtrlV3_34PackEP14CigiBasePacketPhPv@Base 3.3.3a
 _ZNK14CigiLosXRespV34PackEP14CigiBasePacketPhPv@Base 3.3.3a
 _ZNK14CigiRateCtrlV14PackEP14CigiBasePacketPhPv@Base 3.3.3a
 _ZNK14CigiRateCtrlV24PackEP14CigiBasePacketPhPv@Base 3.3.3a
 _ZNK14CigiRateCtrlV34PackEP14CigiBasePacketPhPv@Base 3.3.3a
 _ZNK14CigiViewCtrlV14PackEP14CigiBasePacketPhPv@Base 3.3.3a
 _ZNK14CigiViewCtrlV24PackEP14CigiBasePacketPhPv@Base 3.3.3a
 _ZNK14CigiViewCtrlV34PackEP14CigiBasePacketPhPv@Base 3.3.3a
 _ZNK14CigiWaveCtrlV34PackEP14CigiBasePacketPhPv@Base 3.3.3a
 _ZNK15CigiAtmosCtrlV34PackEP14CigiBasePacketPhPv@Base 3.3.3a
 _ZNK15CigiAtmosCtrlV38FillHoldEP15CigiBaseEnvCtrl@Base 3.3.3a
 _ZNK15CigiHatHotReqV34PackEP14CigiBasePacketPhPv@Base 3.3.3a
 _ZNK15CigiHoldEnvCtrl4PackEP14CigiBasePacketPhPv@Base 3.3.3a
 _ZNK15CigiHoldEnvCtrl8FillHoldEP15CigiBaseEnvCtrl@Base 3.3.3a
 _ZNK15CigiLosRespV3_24PackEP14CigiBasePacketPhPv@Base 3.3.3a
 _ZNK15CigiLosSegReqV14PackEP14CigiBasePacketPhPv@Base 3.3.3a
 _ZNK15CigiLosSegReqV24PackEP14CigiBasePacketPhPv@Base 3.3.3a
 _ZNK15CigiLosSegReqV34PackEP14CigiBasePacketPhPv@Base 3.3.3a
 _ZNK15CigiOutgoingMsg13IsSynchronousEv@Base 3.3.3a
 _ZNK16CigiCompCtrlV3_34PackEP14CigiBasePacketPhPv@Base 3.3.3a
 _ZNK16CigiEntityCtrlV114GetEffectStateEv@Base 3.3.3a
 _ZNK16CigiEntityCtrlV114GetEntityStateEv@Base 3.3.3a
 _ZNK16CigiEntityCtrlV14PackEP14CigiBasePacketPhPv@Base 3.3.3a
 _ZNK16CigiEntityCtrlV214GetEffectStateEv@Base 3.3.3a
 _ZNK16CigiEntityCtrlV24PackEP14CigiBasePacketPhPv@Base 3.3.3a
 _ZNK16CigiEntityCtrlV317GetAnimationStateEv@Base 3.3.3a
 _ZNK16CigiEntityCtrlV34PackEP14CigiBasePacketPhPv@Base 3.3.3a
 _ZNK16CigiEnvCondReqV34PackEP14CigiBasePacketPhPv@Base 3.3.3a
 _ZNK16CigiEnvRgnCtrlV34PackEP14CigiBasePacketPhPv@Base 3.3.3a
 _ZNK16CigiHatHotRespV34PackEP14CigiBasePacketPhPv@Base 3.3.3a
 _ZNK16CigiLosVectReqV14PackEP14CigiBasePacketPhPv@Base 3.3.3a
 _ZNK16CigiLosVectReqV24PackEP14CigiBasePacketPhPv@Base 3.3.3a
 _ZNK16CigiLosVectReqV34PackEP14CigiBasePacketPhPv@Base 3.3.3a
 _ZNK16CigiLosXRespV3_24PackEP14CigiBasePacketPhPv@Base 3.3.3a
 _ZNK16CigiRateCtrlV3_24PackEP14CigiBasePacketPhPv@Base 3.3.3a
 _ZNK16CigiSensorCtrlV14PackEP14CigiBasePacketPhPv@Base 3.3.3a
 _ZNK16CigiSensorCtrlV24PackEP14CigiBasePacketPhPv@Base 3.3.3a
 _ZNK16CigiSensorCtrlV34PackEP14CigiBasePacketPhPv@Base 3.3.3a
 _ZNK16CigiSensorRespV14PackEP14CigiBasePacketPhPv@Base 3.3.3a
 _ZNK16CigiSensorRespV24PackEP14CigiBasePacketPhPv@Base 3.3.3a
 _ZNK16CigiSensorRespV34PackEP14CigiBasePacketPhPv@Base 3.3.3a
 _ZNK16CigiSpecEffDefV14PackEP14CigiBasePacketPhPv@Base 3.3.3a
 _ZNK16CigiSpecEffDefV24PackEP14CigiBasePacketPhPv@Base 3.3.3a
 _ZNK17CigiAerosolRespV34PackEP14CigiBasePacketPhPv@Base 3.3.3a
 _ZNK17CigiArtPartCtrlV14PackEP14CigiBasePacketPhPv@Base 3.3.3a
 _ZNK17CigiArtPartCtrlV24PackEP14CigiBasePacketPhPv@Base 3.3.3a
 _ZNK17CigiArtPartCtrlV34PackEP14CigiBasePacketPhPv@Base 3.3.3a
 _ZNK17CigiDefaultPacket4PackEP14CigiBasePacketPhPv@Base 3.3.3a
 _ZNK17CigiHatHotReqV3_24PackEP14CigiBasePacketPhPv@Base 3.3.3a
 _ZNK17CigiHatHotXRespV34PackEP14CigiBasePacketPhPv@Base 3.3.3a
 _ZNK17CigiLosSegReqV3_24PackEP14CigiBasePacketPhPv@Base 3.3.3a
 _ZNK17CigiPositionReqV34PackEP14CigiBasePacketPhPv@Base 3.3.3a
 _ZNK17CigiSensorXRespV34PackEP14CigiBasePacketPhPv@Base 3.3.3a
 _ZNK17CigiWeatherCtrlV14PackEP14CigiBasePacketPhPv@Base 3.3.3a
 _ZNK17CigiWeatherCtrlV24PackEP14CigiBasePacketPhPv@Base 3.3.3a
 _ZNK17CigiWeatherCtrlV34PackEP14CigiBasePacketPhPv@Base 3.3.3a
 _ZNK18CigiEntityCtrlV3_317GetAnimationStateEv@Base 3.3.3a
 _ZNK18CigiEntityCtrlV3_34PackEP14CigiBasePacketPhPv@Base 3.3.3a
 _ZNK18CigiHatHotRespV3_24PackEP14CigiBasePacketPhPv@Base 3.3.3a
 _ZNK18CigiLosVectReqV3_24PackEP14CigiBasePacketPhPv@Base 3.3.3a
 _ZNK18CigiPositionRespV34PackEP14CigiBasePacketPhPv@Base 3.3.3a
 _ZNK18CigiSymbolCtrlV3_34PackEP14CigiBasePacketPhPv@Base 3.3.3a
 _ZNK19CigiAnimationStopV34PackEP14CigiBasePacketPhPv@Base 3.3.3a
 _ZNK19CigiCelestialCtrlV34PackEP14CigiBasePacketPhPv@Base 3.3.3a
 _ZNK19CigiCelestialCtrlV38FillHoldEP15CigiBaseEnvCtrl@Base 3.3.3a
 _ZNK19CigiCollDetSegDefV14PackEP14CigiBasePacketPhPv@Base 3.3.3a
 _ZNK19CigiCollDetSegDefV24PackEP14CigiBasePacketPhPv@Base 3.3.3a
 _ZNK19CigiCollDetSegDefV34PackEP14CigiBasePacketPhPv@Base 3.3.3a
 _ZNK19CigiCollDetVolDefV24PackEP14CigiBasePacketPhPv@Base 3.3.3a
 _ZNK19CigiCollDetVolDefV34PackEP14CigiBasePacketPhPv@Base 3.3.3a
 _ZNK19CigiEarthModelDefV34PackEP14CigiBasePacketPhPv@Base 3.3.3a
 _ZNK19CigiHatHotXRespV3_24PackEP14CigiBasePacketPhPv@Base 3.3.3a
 _ZNK19CigiShortCompCtrlV34PackEP14CigiBasePacketPhPv@Base 3.3.3a
 _ZNK19CigiSymbolCloneV3_34PackEP14CigiBasePacketPhPv@Base 3.3.3a
 _ZNK19CigiTrajectoryDefV14PackEP14CigiBasePacketPhPv@Base 3.3.3a
 _ZNK19CigiTrajectoryDefV24PackEP14CigiBasePacketPhPv@Base 3.3.3a
 _ZNK19CigiTrajectoryDefV34PackEP14CigiBasePacketPhPv@Base 3.3.3a
 _ZNK20CigiCollDetSegRespV14PackEP14CigiBasePacketPhPv@Base 3.3.3a
 _ZNK20CigiCollDetSegRespV24PackEP14CigiBasePacketPhPv@Base 3.3.3a
 _ZNK20CigiCollDetSegRespV34PackEP14CigiBasePacketPhPv@Base 3.3.3a
 _ZNK20CigiCollDetVolRespV24PackEP14CigiBasePacketPhPv@Base 3.3.3a
 _ZNK20CigiCollDetVolRespV34PackEP14CigiBasePacketPhPv@Base 3.3.3a
 _ZNK21CigiMotionTrackCtrlV34PackEP14CigiBasePacketPhPv@Base 3.3.3a
 _ZNK21CigiShortCompCtrlV3_34PackEP14CigiBasePacketPhPv@Base 3.3.3a
 _ZNK21CigiSymbolLineDefV3_34PackEP14CigiBasePacketPhPv@Base 3.3.3a
 _ZNK21CigiSymbolTextDefV3_34PackEP14CigiBasePacketPhPv@Base 3.3.3a
 _ZNK21CigiWeatherCondRespV34PackEP14CigiBasePacketPhPv@Base 3.3.3a
 _ZNK22CigiShortArtPartCtrlV34PackEP14CigiBasePacketPhPv@Base 3.3.3a
 _ZNK23CigiBaseShortSymbolCtrl12GetDatumTypeEi@Base 3.3.3a
 _ZNK23CigiBaseShortSymbolCtrl12GetUIntDatumEi@Base 3.3.3a
 _ZNK23CigiBaseShortSymbolCtrl13GetFloatDatumEi@Base 3.3.3a
 _ZNK23CigiEventNotificationV34PackEP14CigiBasePacketPhPv@Base 3.3.3a
 _ZNK23CigiShortSymbolCtrlV3_34PackEP14CigiBasePacketPhPv@Base 3.3.3a
 _ZNK23CigiSymbolCircleDefV3_34PackEP14CigiBasePacketPhPv@Base 3.3.3a
 _ZNK24CigiCircleSymbolDataV3_34PackEP24CigiBaseCircleSymbolDataPh@Base 3.3.3a
 _ZNK24CigiSymbolSurfaceDefV3_34PackEP14CigiBasePacketPhPv@Base 3.3.3a
 _ZNK24CigiVertexSymbolDataV3_34PackEP24CigiBaseVertexSymbolDataPh@Base 3.3.3a
 _ZNK25CigiConfClampEntityCtrlV34PackEP14CigiBasePacketPhPv@Base 3.3.3a
 _ZNK25CigiMaritimeSurfaceCtrlV34PackEP14CigiBasePacketPhPv@Base 3.3.3a
 _ZNK25CigiMaritimeSurfaceRespV34PackEP14CigiBasePacketPhPv@Base 3.3.3a
 _ZNK28CigiTerrestrialSurfaceCtrlV34PackEP14CigiBasePacketPhPv@Base 3.3.3a
 _ZNK28CigiTerrestrialSurfaceRespV34PackEP14CigiBasePacketPhPv@Base 3.3.3a
 _ZNK9CigiSOFV14PackEP14CigiBasePacketPhPv@Base 3.3.3a
 _ZNK9CigiSOFV24PackEP14CigiBasePacketPhPv@Base 3.3.3a
 _ZNK9CigiSOFV34PackEP14CigiBasePacketPhPv@Base 3.3.3a
 (optional=templinst)_ZNKSt5ctypeIcE8do_widenEc@Base 3.3.3a
 (optional=templinst)_ZNSs12_S_constructIPcEES0_T_S1_RKSaIcESt20forward_iterator_tag@Base 3.3.3a
 (optional=templinst)_ZNSt15basic_stringbufIcSt11char_traitsIcESaIcEED0Ev@Base 3.3.3a
 (optional=templinst)_ZNSt15basic_stringbufIcSt11char_traitsIcESaIcEED1Ev@Base 3.3.3a
 (optional=templinst)_ZNSt15basic_stringbufIcSt11char_traitsIcESaIcEED2Ev@Base 3.3.3a
 (optional=templinst)_ZNSt6vectorIP24CigiBaseCircleSymbolDataSaIS1_EE13_M_insert_auxEN9__gnu_cxx17__normal_iteratorIPS1_S3_EERKS1_@Base 3.3.3a
 (optional=templinst)_ZNSt6vectorIP24CigiBaseVertexSymbolDataSaIS1_EE13_M_insert_auxEN9__gnu_cxx17__normal_iteratorIPS1_S3_EERKS1_@Base 3.3.3a
 _ZTI11CigiBaseSOF@Base 3.3.3a
 _ZTI11CigiIGMsgV2@Base 3.3.3a
 _ZTI11CigiIGMsgV3@Base 3.3.3a
 _ZTI11CigiMessage@Base 3.3.3a
 _ZTI11CigiSOFV3_2@Base 3.3.3a
 _ZTI11CigiSession@Base 3.3.3a
 _ZTI12CigiHatReqV1@Base 3.3.3a
 _ZTI12CigiHatReqV2@Base 3.3.3a
 _ZTI12CigiHotReqV2@Base 3.3.3a
 _ZTI12CigiIGCtrlV1@Base 3.3.3a
 _ZTI12CigiIGCtrlV2@Base 3.3.3a
 _ZTI12CigiIGCtrlV3@Base 3.3.3a
 _ZTI13CigiBaseIGMsg@Base 3.3.3a
 _ZTI13CigiEnvCtrlV1@Base 3.3.3a
 _ZTI13CigiEnvCtrlV2@Base 3.3.3a
 _ZTI13CigiException@Base 3.3.3a
 _ZTI13CigiHatRespV1@Base 3.3.3a
 _ZTI13CigiHatRespV2@Base 3.3.3a
 _ZTI13CigiHotRespV2@Base 3.3.3a
 _ZTI13CigiIGSession@Base 3.3.3a
 _ZTI13CigiLosRespV1@Base 3.3.3a
 _ZTI13CigiLosRespV2@Base 3.3.3a
 _ZTI13CigiLosRespV3@Base 3.3.3a
 _ZTI13CigiVersionID@Base 3.3.3a
 _ZTI13CigiViewDefV1@Base 3.3.3a
 _ZTI13CigiViewDefV2@Base 3.3.3a
 _ZTI13CigiViewDefV3@Base 3.3.3a
 _ZTI14CigiBaseIGCtrl@Base 3.3.3a
 _ZTI14CigiBasePacket@Base 3.3.3a
 _ZTI14CigiCompCtrlV1@Base 3.3.3a
 _ZTI14CigiCompCtrlV2@Base 3.3.3a
 _ZTI14CigiCompCtrlV3@Base 3.3.3a
 _ZTI14CigiIGCtrlV3_2@Base 3.3.3a
 _ZTI14CigiIGCtrlV3_3@Base 3.3.3a
 _ZTI14CigiLosXRespV3@Base 3.3.3a
 _ZTI14CigiRateCtrlV1@Base 3.3.3a
 _ZTI14CigiRateCtrlV2@Base 3.3.3a
 _ZTI14CigiRateCtrlV3@Base 3.3.3a
 _ZTI14CigiViewCtrlV1@Base 3.3.3a
 _ZTI14CigiViewCtrlV2@Base 3.3.3a
 _ZTI14CigiViewCtrlV3@Base 3.3.3a
 _ZTI14CigiWaveCtrlV3@Base 3.3.3a
 _ZTI15CigiAtmosCtrlV3@Base 3.3.3a
 _ZTI15CigiBaseEnvCtrl@Base 3.3.3a
 _ZTI15CigiBaseLosResp@Base 3.3.3a
 _ZTI15CigiBaseViewDef@Base 3.3.3a
 _ZTI15CigiHatHotReqV3@Base 3.3.3a
 _ZTI15CigiHoldEnvCtrl@Base 3.3.3a
 _ZTI15CigiHostSession@Base 3.3.3a
 _ZTI15CigiIncomingMsg@Base 3.3.3a
 _ZTI15CigiLosRespV3_2@Base 3.3.3a
 _ZTI15CigiLosSegReqV1@Base 3.3.3a
 _ZTI15CigiLosSegReqV2@Base 3.3.3a
 _ZTI15CigiLosSegReqV3@Base 3.3.3a
 _ZTI15CigiOutgoingMsg@Base 3.3.3a
 _ZTI16CigiBaseCompCtrl@Base 3.3.3a
 _ZTI16CigiBaseRateCtrl@Base 3.3.3a
 _ZTI16CigiBaseViewCtrl@Base 3.3.3a
 _ZTI16CigiBaseWaveCtrl@Base 3.3.3a
 _ZTI16CigiCompCtrlV3_3@Base 3.3.3a
 _ZTI16CigiEntityCtrlV1@Base 3.3.3a
 _ZTI16CigiEntityCtrlV2@Base 3.3.3a
 _ZTI16CigiEntityCtrlV3@Base 3.3.3a
 _ZTI16CigiEnvCondReqV3@Base 3.3.3a
 _ZTI16CigiEnvRgnCtrlV3@Base 3.3.3a
 _ZTI16CigiHatHotRespV3@Base 3.3.3a
 _ZTI16CigiLosVectReqV1@Base 3.3.3a
 _ZTI16CigiLosVectReqV2@Base 3.3.3a
 _ZTI16CigiLosVectReqV3@Base 3.3.3a
 _ZTI16CigiLosXRespV3_2@Base 3.3.3a
 _ZTI16CigiRateCtrlV3_2@Base 3.3.3a
 _ZTI16CigiSensorCtrlV1@Base 3.3.3a
 _ZTI16CigiSensorCtrlV2@Base 3.3.3a
 _ZTI16CigiSensorCtrlV3@Base 3.3.3a
 _ZTI16CigiSensorRespV1@Base 3.3.3a
 _ZTI16CigiSensorRespV2@Base 3.3.3a
 _ZTI16CigiSensorRespV3@Base 3.3.3a
 _ZTI16CigiSpecEffDefV1@Base 3.3.3a
 _ZTI16CigiSpecEffDefV2@Base 3.3.3a
 _ZTI17CigiAerosolRespV3@Base 3.3.3a
 _ZTI17CigiArtPartCtrlV1@Base 3.3.3a
 _ZTI17CigiArtPartCtrlV2@Base 3.3.3a
 _ZTI17CigiArtPartCtrlV3@Base 3.3.3a
 _ZTI17CigiBaseHatHotReq@Base 3.3.3a
 _ZTI17CigiBaseLosSegReq@Base 3.3.3a
 _ZTI17CigiDefaultPacket@Base 3.3.3a
 _ZTI17CigiHatHotReqV3_2@Base 3.3.3a
 _ZTI17CigiHatHotXRespV3@Base 3.3.3a
 _ZTI17CigiLosSegReqV3_2@Base 3.3.3a
 _ZTI17CigiMessageBuffer@Base 3.3.3a
 _ZTI17CigiPositionReqV3@Base 3.3.3a
 _ZTI17CigiSensorXRespV3@Base 3.3.3a
 _ZTI17CigiWeatherCtrlV1@Base 3.3.3a
 _ZTI17CigiWeatherCtrlV2@Base 3.3.3a
 _ZTI17CigiWeatherCtrlV3@Base 3.3.3a
 _ZTI18CigiAnimationTable@Base 3.3.3a
 _ZTI18CigiBaseEntityCtrl@Base 3.3.3a
 _ZTI18CigiBaseEnvCondReq@Base 3.3.3a
 _ZTI18CigiBaseEnvRgnCtrl@Base 3.3.3a
 _ZTI18CigiBaseHatHotResp@Base 3.3.3a
 _ZTI18CigiBaseLosVectReq@Base 3.3.3a
 _ZTI18CigiBaseSensorCtrl@Base 3.3.3a
 _ZTI18CigiBaseSensorResp@Base 3.3.3a
 _ZTI18CigiBaseSpecEffDef@Base 3.3.3a
 _ZTI18CigiBaseSymbolCtrl@Base 3.3.3a
 _ZTI18CigiEntityCtrlV3_3@Base 3.3.3a
 _ZTI18CigiHatHotRespV3_2@Base 3.3.3a
 _ZTI18CigiLosVectReqV3_2@Base 3.3.3a
 _ZTI18CigiPositionRespV3@Base 3.3.3a
 _ZTI18CigiSymbolCtrlV3_3@Base 3.3.3a
 _ZTI19CigiAnimationStopV3@Base 3.3.3a
 _ZTI19CigiBaseAerosolResp@Base 3.3.3a
 _ZTI19CigiBaseArtPartCtrl@Base 3.3.3a
 _ZTI19CigiBasePositionReq@Base 3.3.3a
 _ZTI19CigiBaseSymbolClone@Base 3.3.3a
 _ZTI19CigiBaseWeatherCtrl@Base 3.3.3a
 _ZTI19CigiCelestialCtrlV3@Base 3.3.3a
 _ZTI19CigiCollDetSegDefV1@Base 3.3.3a
 _ZTI19CigiCollDetSegDefV2@Base 3.3.3a
 _ZTI19CigiCollDetSegDefV3@Base 3.3.3a
 _ZTI19CigiCollDetVolDefV2@Base 3.3.3a
 _ZTI19CigiCollDetVolDefV3@Base 3.3.3a
 _ZTI19CigiEarthModelDefV3@Base 3.3.3a
 _ZTI19CigiHatHotXRespV3_2@Base 3.3.3a
 _ZTI19CigiShortCompCtrlV3@Base 3.3.3a
 _ZTI19CigiSymbolCloneV3_3@Base 3.3.3a
 _ZTI19CigiTrajectoryDefV1@Base 3.3.3a
 _ZTI19CigiTrajectoryDefV2@Base 3.3.3a
 _ZTI19CigiTrajectoryDefV3@Base 3.3.3a
 _ZTI20CigiBasePositionResp@Base 3.3.3a
 _ZTI20CigiCollDetSegRespV1@Base 3.3.3a
 _ZTI20CigiCollDetSegRespV2@Base 3.3.3a
 _ZTI20CigiCollDetSegRespV3@Base 3.3.3a
 _ZTI20CigiCollDetVolRespV2@Base 3.3.3a
 _ZTI20CigiCollDetVolRespV3@Base 3.3.3a
 _ZTI21CigiBaseAnimationStop@Base 3.3.3a
 _ZTI21CigiBaseCollDetSegDef@Base 3.3.3a
 _ZTI21CigiBaseCollDetVolDef@Base 3.3.3a
 _ZTI21CigiBaseEarthModelDef@Base 3.3.3a
 _ZTI21CigiBaseSymbolLineDef@Base 3.3.3a
 _ZTI21CigiBaseSymbolTextDef@Base 3.3.3a
 _ZTI21CigiBaseTrajectoryDef@Base 3.3.3a
 _ZTI21CigiMotionTrackCtrlV3@Base 3.3.3a
 _ZTI21CigiShortCompCtrlV3_3@Base 3.3.3a
 _ZTI21CigiSymbolLineDefV3_3@Base 3.3.3a
 _ZTI21CigiSymbolTextDefV3_3@Base 3.3.3a
 _ZTI21CigiWeatherCondRespV3@Base 3.3.3a
 _ZTI22CigiBaseCollDetSegResp@Base 3.3.3a
 _ZTI22CigiBaseCollDetVolResp@Base 3.3.3a
 _ZTI22CigiShortArtPartCtrlV3@Base 3.3.3a
 _ZTI23CigiBaseMotionTrackCtrl@Base 3.3.3a
 _ZTI23CigiBaseShortSymbolCtrl@Base 3.3.3a
 _ZTI23CigiBaseSymbolCircleDef@Base 3.3.3a
 _ZTI23CigiBaseWeatherCondResp@Base 3.3.3a
 _ZTI23CigiEventNotificationV3@Base 3.3.3a
 _ZTI23CigiShortSymbolCtrlV3_3@Base 3.3.3a
 _ZTI23CigiSymbolCircleDefV3_3@Base 3.3.3a
 _ZTI24CigiBaseCircleSymbolData@Base 3.3.3a
 _ZTI24CigiBaseShortArtPartCtrl@Base 3.3.3a
 _ZTI24CigiBaseSymbolSurfaceDef@Base 3.3.3a
 _ZTI24CigiBaseVariableSizePckt@Base 3.3.3a
 _ZTI24CigiBaseVertexSymbolData@Base 3.3.3a
 _ZTI24CigiCircleSymbolDataV3_3@Base 3.3.3a
 _ZTI24CigiNullPointerException@Base 3.3.3a
 _ZTI24CigiSymbolSurfaceDefV3_3@Base 3.3.3a
 _ZTI24CigiVertexSymbolDataV3_3@Base 3.3.3a
 _ZTI25CigiBaseEventNotification@Base 3.3.3a
 _ZTI25CigiConfClampEntityCtrlV3@Base 3.3.3a
 _ZTI25CigiMaritimeSurfaceCtrlV3@Base 3.3.3a
 _ZTI25CigiMaritimeSurfaceRespV3@Base 3.3.3a
 _ZTI27CigiBaseConfClampEntityCtrl@Base 3.3.3a
 _ZTI27CigiBaseMaritimeSurfaceCtrl@Base 3.3.3a
 _ZTI27CigiBaseMaritimeSurfaceResp@Base 3.3.3a
 _ZTI27CigiImproperPacketException@Base 3.3.3a
 _ZTI28CigiTerrestrialSurfaceCtrlV3@Base 3.3.3a
 _ZTI28CigiTerrestrialSurfaceRespV3@Base 3.3.3a
 _ZTI28CigiValueOutOfRangeException@Base 3.3.3a
 _ZTI29CigiMissingIgControlException@Base 3.3.3a
 _ZTI30CigiBaseTerrestrialSurfaceCtrl@Base 3.3.3a
 _ZTI30CigiBaseTerrestrialSurfaceResp@Base 3.3.3a
 _ZTI32CigiCalledOutOfSequenceException@Base 3.3.3a
 _ZTI32CigiMissingStartOfFrameException@Base 3.3.3a
 _ZTI6CigiIO@Base 3.3.3a
 _ZTI9CigiSOFV1@Base 3.3.3a
 _ZTI9CigiSOFV2@Base 3.3.3a
 _ZTI9CigiSOFV3@Base 3.3.3a
 _ZTS11CigiBaseSOF@Base 3.3.3a
 _ZTS11CigiIGMsgV2@Base 3.3.3a
 _ZTS11CigiIGMsgV3@Base 3.3.3a
 _ZTS11CigiMessage@Base 3.3.3a
 _ZTS11CigiSOFV3_2@Base 3.3.3a
 _ZTS11CigiSession@Base 3.3.3a
 _ZTS12CigiHatReqV1@Base 3.3.3a
 _ZTS12CigiHatReqV2@Base 3.3.3a
 _ZTS12CigiHotReqV2@Base 3.3.3a
 _ZTS12CigiIGCtrlV1@Base 3.3.3a
 _ZTS12CigiIGCtrlV2@Base 3.3.3a
 _ZTS12CigiIGCtrlV3@Base 3.3.3a
 _ZTS13CigiBaseIGMsg@Base 3.3.3a
 _ZTS13CigiEnvCtrlV1@Base 3.3.3a
 _ZTS13CigiEnvCtrlV2@Base 3.3.3a
 _ZTS13CigiException@Base 3.3.3a
 _ZTS13CigiHatRespV1@Base 3.3.3a
 _ZTS13CigiHatRespV2@Base 3.3.3a
 _ZTS13CigiHotRespV2@Base 3.3.3a
 _ZTS13CigiIGSession@Base 3.3.3a
 _ZTS13CigiLosRespV1@Base 3.3.3a
 _ZTS13CigiLosRespV2@Base 3.3.3a
 _ZTS13CigiLosRespV3@Base 3.3.3a
 _ZTS13CigiVersionID@Base 3.3.3a
 _ZTS13CigiViewDefV1@Base 3.3.3a
 _ZTS13CigiViewDefV2@Base 3.3.3a
 _ZTS13CigiViewDefV3@Base 3.3.3a
 _ZTS14CigiBaseIGCtrl@Base 3.3.3a
 _ZTS14CigiBasePacket@Base 3.3.3a
 _ZTS14CigiCompCtrlV1@Base 3.3.3a
 _ZTS14CigiCompCtrlV2@Base 3.3.3a
 _ZTS14CigiCompCtrlV3@Base 3.3.3a
 _ZTS14CigiIGCtrlV3_2@Base 3.3.3a
 _ZTS14CigiIGCtrlV3_3@Base 3.3.3a
 _ZTS14CigiLosXRespV3@Base 3.3.3a
 _ZTS14CigiRateCtrlV1@Base 3.3.3a
 _ZTS14CigiRateCtrlV2@Base 3.3.3a
 _ZTS14CigiRateCtrlV3@Base 3.3.3a
 _ZTS14CigiViewCtrlV1@Base 3.3.3a
 _ZTS14CigiViewCtrlV2@Base 3.3.3a
 _ZTS14CigiViewCtrlV3@Base 3.3.3a
 _ZTS14CigiWaveCtrlV3@Base 3.3.3a
 _ZTS15CigiAtmosCtrlV3@Base 3.3.3a
 _ZTS15CigiBaseEnvCtrl@Base 3.3.3a
 _ZTS15CigiBaseLosResp@Base 3.3.3a
 _ZTS15CigiBaseViewDef@Base 3.3.3a
 _ZTS15CigiHatHotReqV3@Base 3.3.3a
 _ZTS15CigiHoldEnvCtrl@Base 3.3.3a
 _ZTS15CigiHostSession@Base 3.3.3a
 _ZTS15CigiIncomingMsg@Base 3.3.3a
 _ZTS15CigiLosRespV3_2@Base 3.3.3a
 _ZTS15CigiLosSegReqV1@Base 3.3.3a
 _ZTS15CigiLosSegReqV2@Base 3.3.3a
 _ZTS15CigiLosSegReqV3@Base 3.3.3a
 _ZTS15CigiOutgoingMsg@Base 3.3.3a
 _ZTS16CigiBaseCompCtrl@Base 3.3.3a
 _ZTS16CigiBaseRateCtrl@Base 3.3.3a
 _ZTS16CigiBaseViewCtrl@Base 3.3.3a
 _ZTS16CigiBaseWaveCtrl@Base 3.3.3a
 _ZTS16CigiCompCtrlV3_3@Base 3.3.3a
 _ZTS16CigiEntityCtrlV1@Base 3.3.3a
 _ZTS16CigiEntityCtrlV2@Base 3.3.3a
 _ZTS16CigiEntityCtrlV3@Base 3.3.3a
 _ZTS16CigiEnvCondReqV3@Base 3.3.3a
 _ZTS16CigiEnvRgnCtrlV3@Base 3.3.3a
 _ZTS16CigiHatHotRespV3@Base 3.3.3a
 _ZTS16CigiLosVectReqV1@Base 3.3.3a
 _ZTS16CigiLosVectReqV2@Base 3.3.3a
 _ZTS16CigiLosVectReqV3@Base 3.3.3a
 _ZTS16CigiLosXRespV3_2@Base 3.3.3a
 _ZTS16CigiRateCtrlV3_2@Base 3.3.3a
 _ZTS16CigiSensorCtrlV1@Base 3.3.3a
 _ZTS16CigiSensorCtrlV2@Base 3.3.3a
 _ZTS16CigiSensorCtrlV3@Base 3.3.3a
 _ZTS16CigiSensorRespV1@Base 3.3.3a
 _ZTS16CigiSensorRespV2@Base 3.3.3a
 _ZTS16CigiSensorRespV3@Base 3.3.3a
 _ZTS16CigiSpecEffDefV1@Base 3.3.3a
 _ZTS16CigiSpecEffDefV2@Base 3.3.3a
 _ZTS17CigiAerosolRespV3@Base 3.3.3a
 _ZTS17CigiArtPartCtrlV1@Base 3.3.3a
 _ZTS17CigiArtPartCtrlV2@Base 3.3.3a
 _ZTS17CigiArtPartCtrlV3@Base 3.3.3a
 _ZTS17CigiBaseHatHotReq@Base 3.3.3a
 _ZTS17CigiBaseLosSegReq@Base 3.3.3a
 _ZTS17CigiDefaultPacket@Base 3.3.3a
 _ZTS17CigiHatHotReqV3_2@Base 3.3.3a
 _ZTS17CigiHatHotXRespV3@Base 3.3.3a
 _ZTS17CigiLosSegReqV3_2@Base 3.3.3a
 _ZTS17CigiMessageBuffer@Base 3.3.3a
 _ZTS17CigiPositionReqV3@Base 3.3.3a
 _ZTS17CigiSensorXRespV3@Base 3.3.3a
 _ZTS17CigiWeatherCtrlV1@Base 3.3.3a
 _ZTS17CigiWeatherCtrlV2@Base 3.3.3a
 _ZTS17CigiWeatherCtrlV3@Base 3.3.3a
 _ZTS18CigiAnimationTable@Base 3.3.3a
 _ZTS18CigiBaseEntityCtrl@Base 3.3.3a
 _ZTS18CigiBaseEnvCondReq@Base 3.3.3a
 _ZTS18CigiBaseEnvRgnCtrl@Base 3.3.3a
 _ZTS18CigiBaseHatHotResp@Base 3.3.3a
 _ZTS18CigiBaseLosVectReq@Base 3.3.3a
 _ZTS18CigiBaseSensorCtrl@Base 3.3.3a
 _ZTS18CigiBaseSensorResp@Base 3.3.3a
 _ZTS18CigiBaseSpecEffDef@Base 3.3.3a
 _ZTS18CigiBaseSymbolCtrl@Base 3.3.3a
 _ZTS18CigiEntityCtrlV3_3@Base 3.3.3a
 _ZTS18CigiHatHotRespV3_2@Base 3.3.3a
 _ZTS18CigiLosVectReqV3_2@Base 3.3.3a
 _ZTS18CigiPositionRespV3@Base 3.3.3a
 _ZTS18CigiSymbolCtrlV3_3@Base 3.3.3a
 _ZTS19CigiAnimationStopV3@Base 3.3.3a
 _ZTS19CigiBaseAerosolResp@Base 3.3.3a
 _ZTS19CigiBaseArtPartCtrl@Base 3.3.3a
 _ZTS19CigiBasePositionReq@Base 3.3.3a
 _ZTS19CigiBaseSymbolClone@Base 3.3.3a
 _ZTS19CigiBaseWeatherCtrl@Base 3.3.3a
 _ZTS19CigiCelestialCtrlV3@Base 3.3.3a
 _ZTS19CigiCollDetSegDefV1@Base 3.3.3a
 _ZTS19CigiCollDetSegDefV2@Base 3.3.3a
 _ZTS19CigiCollDetSegDefV3@Base 3.3.3a
 _ZTS19CigiCollDetVolDefV2@Base 3.3.3a
 _ZTS19CigiCollDetVolDefV3@Base 3.3.3a
 _ZTS19CigiEarthModelDefV3@Base 3.3.3a
 _ZTS19CigiHatHotXRespV3_2@Base 3.3.3a
 _ZTS19CigiShortCompCtrlV3@Base 3.3.3a
 _ZTS19CigiSymbolCloneV3_3@Base 3.3.3a
 _ZTS19CigiTrajectoryDefV1@Base 3.3.3a
 _ZTS19CigiTrajectoryDefV2@Base 3.3.3a
 _ZTS19CigiTrajectoryDefV3@Base 3.3.3a
 _ZTS20CigiBasePositionResp@Base 3.3.3a
 _ZTS20CigiCollDetSegRespV1@Base 3.3.3a
 _ZTS20CigiCollDetSegRespV2@Base 3.3.3a
 _ZTS20CigiCollDetSegRespV3@Base 3.3.3a
 _ZTS20CigiCollDetVolRespV2@Base 3.3.3a
 _ZTS20CigiCollDetVolRespV3@Base 3.3.3a
 _ZTS21CigiBaseAnimationStop@Base 3.3.3a
 _ZTS21CigiBaseCollDetSegDef@Base 3.3.3a
 _ZTS21CigiBaseCollDetVolDef@Base 3.3.3a
 _ZTS21CigiBaseEarthModelDef@Base 3.3.3a
 _ZTS21CigiBaseSymbolLineDef@Base 3.3.3a
 _ZTS21CigiBaseSymbolTextDef@Base 3.3.3a
 _ZTS21CigiBaseTrajectoryDef@Base 3.3.3a
 _ZTS21CigiMotionTrackCtrlV3@Base 3.3.3a
 _ZTS21CigiShortCompCtrlV3_3@Base 3.3.3a
 _ZTS21CigiSymbolLineDefV3_3@Base 3.3.3a
 _ZTS21CigiSymbolTextDefV3_3@Base 3.3.3a
 _ZTS21CigiWeatherCondRespV3@Base 3.3.3a
 _ZTS22CigiBaseCollDetSegResp@Base 3.3.3a
 _ZTS22CigiBaseCollDetVolResp@Base 3.3.3a
 _ZTS22CigiShortArtPartCtrlV3@Base 3.3.3a
 _ZTS23CigiBaseMotionTrackCtrl@Base 3.3.3a
 _ZTS23CigiBaseShortSymbolCtrl@Base 3.3.3a
 _ZTS23CigiBaseSymbolCircleDef@Base 3.3.3a
 _ZTS23CigiBaseWeatherCondResp@Base 3.3.3a
 _ZTS23CigiEventNotificationV3@Base 3.3.3a
 _ZTS23CigiShortSymbolCtrlV3_3@Base 3.3.3a
 _ZTS23CigiSymbolCircleDefV3_3@Base 3.3.3a
 _ZTS24CigiBaseCircleSymbolData@Base 3.3.3a
 _ZTS24CigiBaseShortArtPartCtrl@Base 3.3.3a
 _ZTS24CigiBaseSymbolSurfaceDef@Base 3.3.3a
 _ZTS24CigiBaseVariableSizePckt@Base 3.3.3a
 _ZTS24CigiBaseVertexSymbolData@Base 3.3.3a
 _ZTS24CigiCircleSymbolDataV3_3@Base 3.3.3a
 _ZTS24CigiNullPointerException@Base 3.3.3a
 _ZTS24CigiSymbolSurfaceDefV3_3@Base 3.3.3a
 _ZTS24CigiVertexSymbolDataV3_3@Base 3.3.3a
 _ZTS25CigiBaseEventNotification@Base 3.3.3a
 _ZTS25CigiConfClampEntityCtrlV3@Base 3.3.3a
 _ZTS25CigiMaritimeSurfaceCtrlV3@Base 3.3.3a
 _ZTS25CigiMaritimeSurfaceRespV3@Base 3.3.3a
 _ZTS27CigiBaseConfClampEntityCtrl@Base 3.3.3a
 _ZTS27CigiBaseMaritimeSurfaceCtrl@Base 3.3.3a
 _ZTS27CigiBaseMaritimeSurfaceResp@Base 3.3.3a
 _ZTS27CigiImproperPacketException@Base 3.3.3a
 _ZTS28CigiTerrestrialSurfaceCtrlV3@Base 3.3.3a
 _ZTS28CigiTerrestrialSurfaceRespV3@Base 3.3.3a
 _ZTS28CigiValueOutOfRangeException@Base 3.3.3a
 _ZTS29CigiMissingIgControlException@Base 3.3.3a
 _ZTS30CigiBaseTerrestrialSurfaceCtrl@Base 3.3.3a
 _ZTS30CigiBaseTerrestrialSurfaceResp@Base 3.3.3a
 _ZTS32CigiCalledOutOfSequenceException@Base 3.3.3a
 _ZTS32CigiMissingStartOfFrameException@Base 3.3.3a
 _ZTS6CigiIO@Base 3.3.3a
 _ZTS9CigiSOFV1@Base 3.3.3a
 _ZTS9CigiSOFV2@Base 3.3.3a
 _ZTS9CigiSOFV3@Base 3.3.3a
 _ZTV11CigiBaseSOF@Base 3.3.3a
 _ZTV11CigiIGMsgV2@Base 3.3.3a
 _ZTV11CigiIGMsgV3@Base 3.3.3a
 _ZTV11CigiMessage@Base 3.3.3a
 _ZTV11CigiSOFV3_2@Base 3.3.3a
 _ZTV11CigiSession@Base 3.3.3a
 _ZTV12CigiHatReqV1@Base 3.3.3a
 _ZTV12CigiHatReqV2@Base 3.3.3a
 _ZTV12CigiHotReqV2@Base 3.3.3a
 _ZTV12CigiIGCtrlV1@Base 3.3.3a
 _ZTV12CigiIGCtrlV2@Base 3.3.3a
 _ZTV12CigiIGCtrlV3@Base 3.3.3a
 (optional=gcc-5.0)_ZTV13CigiBaseIGMsg@Base 3.3.3a
 _ZTV13CigiEnvCtrlV1@Base 3.3.3a
 _ZTV13CigiEnvCtrlV2@Base 3.3.3a
 _ZTV13CigiException@Base 3.3.3a
 _ZTV13CigiHatRespV1@Base 3.3.3a
 _ZTV13CigiHatRespV2@Base 3.3.3a
 _ZTV13CigiHotRespV2@Base 3.3.3a
 _ZTV13CigiIGSession@Base 3.3.3a
 _ZTV13CigiLosRespV1@Base 3.3.3a
 _ZTV13CigiLosRespV2@Base 3.3.3a
 _ZTV13CigiLosRespV3@Base 3.3.3a
 _ZTV13CigiVersionID@Base 3.3.3a
 _ZTV13CigiViewDefV1@Base 3.3.3a
 _ZTV13CigiViewDefV2@Base 3.3.3a
 _ZTV13CigiViewDefV3@Base 3.3.3a
 _ZTV14CigiBaseIGCtrl@Base 3.3.3a
 (optional=gcc-5.0)_ZTV14CigiBasePacket@Base 3.3.3a
 _ZTV14CigiCompCtrlV1@Base 3.3.3a
 _ZTV14CigiCompCtrlV2@Base 3.3.3a
 _ZTV14CigiCompCtrlV3@Base 3.3.3a
 _ZTV14CigiIGCtrlV3_2@Base 3.3.3a
 _ZTV14CigiIGCtrlV3_3@Base 3.3.3a
 _ZTV14CigiLosXRespV3@Base 3.3.3a
 _ZTV14CigiRateCtrlV1@Base 3.3.3a
 _ZTV14CigiRateCtrlV2@Base 3.3.3a
 _ZTV14CigiRateCtrlV3@Base 3.3.3a
 _ZTV14CigiViewCtrlV1@Base 3.3.3a
 _ZTV14CigiViewCtrlV2@Base 3.3.3a
 _ZTV14CigiViewCtrlV3@Base 3.3.3a
 _ZTV14CigiWaveCtrlV3@Base 3.3.3a
 _ZTV15CigiAtmosCtrlV3@Base 3.3.3a
 _ZTV15CigiBaseEnvCtrl@Base 3.3.3a
 _ZTV15CigiBaseLosResp@Base 3.3.3a
 _ZTV15CigiBaseViewDef@Base 3.3.3a
 _ZTV15CigiHatHotReqV3@Base 3.3.3a
 _ZTV15CigiHoldEnvCtrl@Base 3.3.3a
 _ZTV15CigiHostSession@Base 3.3.3a
 _ZTV15CigiIncomingMsg@Base 3.3.3a
 _ZTV15CigiLosRespV3_2@Base 3.3.3a
 _ZTV15CigiLosSegReqV1@Base 3.3.3a
 _ZTV15CigiLosSegReqV2@Base 3.3.3a
 _ZTV15CigiLosSegReqV3@Base 3.3.3a
 _ZTV15CigiOutgoingMsg@Base 3.3.3a
 (optional=gcc-5.0)_ZTV16CigiBaseCompCtrl@Base 3.3.3a
 (optional=gcc-5.0)_ZTV16CigiBaseRateCtrl@Base 3.3.3a
 _ZTV16CigiBaseViewCtrl@Base 3.3.3a
 _ZTV16CigiBaseWaveCtrl@Base 3.3.3a
 _ZTV16CigiCompCtrlV3_3@Base 3.3.3a
 _ZTV16CigiEntityCtrlV1@Base 3.3.3a
 _ZTV16CigiEntityCtrlV2@Base 3.3.3a
 _ZTV16CigiEntityCtrlV3@Base 3.3.3a
 _ZTV16CigiEnvCondReqV3@Base 3.3.3a
 _ZTV16CigiEnvRgnCtrlV3@Base 3.3.3a
 _ZTV16CigiHatHotRespV3@Base 3.3.3a
 _ZTV16CigiLosVectReqV1@Base 3.3.3a
 _ZTV16CigiLosVectReqV2@Base 3.3.3a
 _ZTV16CigiLosVectReqV3@Base 3.3.3a
 _ZTV16CigiLosXRespV3_2@Base 3.3.3a
 _ZTV16CigiRateCtrlV3_2@Base 3.3.3a
 _ZTV16CigiSensorCtrlV1@Base 3.3.3a
 _ZTV16CigiSensorCtrlV2@Base 3.3.3a
 _ZTV16CigiSensorCtrlV3@Base 3.3.3a
 _ZTV16CigiSensorRespV1@Base 3.3.3a
 _ZTV16CigiSensorRespV2@Base 3.3.3a
 _ZTV16CigiSensorRespV3@Base 3.3.3a
 _ZTV16CigiSpecEffDefV1@Base 3.3.3a
 _ZTV16CigiSpecEffDefV2@Base 3.3.3a
 _ZTV17CigiAerosolRespV3@Base 3.3.3a
 _ZTV17CigiArtPartCtrlV1@Base 3.3.3a
 _ZTV17CigiArtPartCtrlV2@Base 3.3.3a
 _ZTV17CigiArtPartCtrlV3@Base 3.3.3a
 _ZTV17CigiBaseHatHotReq@Base 3.3.3a
 _ZTV17CigiBaseLosSegReq@Base 3.3.3a
 _ZTV17CigiDefaultPacket@Base 3.3.3a
 _ZTV17CigiHatHotReqV3_2@Base 3.3.3a
 _ZTV17CigiHatHotXRespV3@Base 3.3.3a
 _ZTV17CigiLosSegReqV3_2@Base 3.3.3a
 _ZTV17CigiMessageBuffer@Base 3.3.3a
 _ZTV17CigiPositionReqV3@Base 3.3.3a
 _ZTV17CigiSensorXRespV3@Base 3.3.3a
 _ZTV17CigiWeatherCtrlV1@Base 3.3.3a
 _ZTV17CigiWeatherCtrlV2@Base 3.3.3a
 _ZTV17CigiWeatherCtrlV3@Base 3.3.3a
 _ZTV18CigiAnimationTable@Base 3.3.3a
 _ZTV18CigiBaseEntityCtrl@Base 3.3.3a
 _ZTV18CigiBaseEnvCondReq@Base 3.3.3a
 _ZTV18CigiBaseEnvRgnCtrl@Base 3.3.3a
 (optional=gcc-5.0)_ZTV18CigiBaseHatHotResp@Base 3.3.3a
 _ZTV18CigiBaseLosVectReq@Base 3.3.3a
 _ZTV18CigiBaseSensorCtrl@Base 3.3.3a
 _ZTV18CigiBaseSensorResp@Base 3.3.3a
 _ZTV18CigiBaseSpecEffDef@Base 3.3.3a
 _ZTV18CigiBaseSymbolCtrl@Base 3.3.3a
 _ZTV18CigiEntityCtrlV3_3@Base 3.3.3a
 _ZTV18CigiHatHotRespV3_2@Base 3.3.3a
 _ZTV18CigiLosVectReqV3_2@Base 3.3.3a
 _ZTV18CigiPositionRespV3@Base 3.3.3a
 _ZTV18CigiSymbolCtrlV3_3@Base 3.3.3a
 _ZTV19CigiAnimationStopV3@Base 3.3.3a
 _ZTV19CigiBaseAerosolResp@Base 3.3.3a
 _ZTV19CigiBaseArtPartCtrl@Base 3.3.3a
 _ZTV19CigiBasePositionReq@Base 3.3.3a
 _ZTV19CigiBaseSymbolClone@Base 3.3.3a
 _ZTV19CigiBaseWeatherCtrl@Base 3.3.3a
 _ZTV19CigiCelestialCtrlV3@Base 3.3.3a
 _ZTV19CigiCollDetSegDefV1@Base 3.3.3a
 _ZTV19CigiCollDetSegDefV2@Base 3.3.3a
 _ZTV19CigiCollDetSegDefV3@Base 3.3.3a
 _ZTV19CigiCollDetVolDefV2@Base 3.3.3a
 _ZTV19CigiCollDetVolDefV3@Base 3.3.3a
 _ZTV19CigiEarthModelDefV3@Base 3.3.3a
 _ZTV19CigiHatHotXRespV3_2@Base 3.3.3a
 _ZTV19CigiShortCompCtrlV3@Base 3.3.3a
 _ZTV19CigiSymbolCloneV3_3@Base 3.3.3a
 _ZTV19CigiTrajectoryDefV1@Base 3.3.3a
 _ZTV19CigiTrajectoryDefV2@Base 3.3.3a
 _ZTV19CigiTrajectoryDefV3@Base 3.3.3a
 _ZTV20CigiBasePositionResp@Base 3.3.3a
 _ZTV20CigiCollDetSegRespV1@Base 3.3.3a
 _ZTV20CigiCollDetSegRespV2@Base 3.3.3a
 _ZTV20CigiCollDetSegRespV3@Base 3.3.3a
 _ZTV20CigiCollDetVolRespV2@Base 3.3.3a
 _ZTV20CigiCollDetVolRespV3@Base 3.3.3a
 (optional=gcc-5.0)_ZTV21CigiBaseAnimationStop@Base 3.3.3a
 (optional=gcc-5.0)_ZTV21CigiBaseCollDetSegDef@Base 3.3.3a
 _ZTV21CigiBaseCollDetVolDef@Base 3.3.3a
 (optional=gcc-5.0)_ZTV21CigiBaseEarthModelDef@Base 3.3.3a
 _ZTV21CigiBaseSymbolLineDef@Base 3.3.3a
 _ZTV21CigiBaseSymbolTextDef@Base 3.3.3a
 _ZTV21CigiBaseTrajectoryDef@Base 3.3.3a
 _ZTV21CigiMotionTrackCtrlV3@Base 3.3.3a
 _ZTV21CigiShortCompCtrlV3_3@Base 3.3.3a
 _ZTV21CigiSymbolLineDefV3_3@Base 3.3.3a
 _ZTV21CigiSymbolTextDefV3_3@Base 3.3.3a
 _ZTV21CigiWeatherCondRespV3@Base 3.3.3a
 _ZTV22CigiBaseCollDetSegResp@Base 3.3.3a
 _ZTV22CigiBaseCollDetVolResp@Base 3.3.3a
 _ZTV22CigiShortArtPartCtrlV3@Base 3.3.3a
 _ZTV23CigiBaseMotionTrackCtrl@Base 3.3.3a
 _ZTV23CigiBaseShortSymbolCtrl@Base 3.3.3a
 _ZTV23CigiBaseSymbolCircleDef@Base 3.3.3a
 _ZTV23CigiBaseWeatherCondResp@Base 3.3.3a
 _ZTV23CigiEventNotificationV3@Base 3.3.3a
 _ZTV23CigiShortSymbolCtrlV3_3@Base 3.3.3a
 _ZTV23CigiSymbolCircleDefV3_3@Base 3.3.3a
 _ZTV24CigiBaseCircleSymbolData@Base 3.3.3a
 _ZTV24CigiBaseShortArtPartCtrl@Base 3.3.3a
 _ZTV24CigiBaseSymbolSurfaceDef@Base 3.3.3a
 (optional=gcc-5.0)_ZTV24CigiBaseVariableSizePckt@Base 3.3.3a
 (optional=gcc-5.0)_ZTV24CigiBaseVertexSymbolData@Base 3.3.3a
 _ZTV24CigiCircleSymbolDataV3_3@Base 3.3.3a
 _ZTV24CigiNullPointerException@Base 3.3.3a
 _ZTV24CigiSymbolSurfaceDefV3_3@Base 3.3.3a
 _ZTV24CigiVertexSymbolDataV3_3@Base 3.3.3a
 _ZTV25CigiBaseEventNotification@Base 3.3.3a
 _ZTV25CigiConfClampEntityCtrlV3@Base 3.3.3a
 _ZTV25CigiMaritimeSurfaceCtrlV3@Base 3.3.3a
 _ZTV25CigiMaritimeSurfaceRespV3@Base 3.3.3a
 _ZTV27CigiBaseConfClampEntityCtrl@Base 3.3.3a
 _ZTV27CigiBaseMaritimeSurfaceCtrl@Base 3.3.3a
 _ZTV27CigiBaseMaritimeSurfaceResp@Base 3.3.3a
 _ZTV27CigiImproperPacketException@Base 3.3.3a
 _ZTV28CigiTerrestrialSurfaceCtrlV3@Base 3.3.3a
 _ZTV28CigiTerrestrialSurfaceRespV3@Base 3.3.3a
 _ZTV28CigiValueOutOfRangeException@Base 3.3.3a
 _ZTV29CigiMissingIgControlException@Base 3.3.3a
 _ZTV30CigiBaseTerrestrialSurfaceCtrl@Base 3.3.3a
 (optional=gcc-5.0)_ZTV30CigiBaseTerrestrialSurfaceResp@Base 3.3.3a
 _ZTV32CigiCalledOutOfSequenceException@Base 3.3.3a
 _ZTV32CigiMissingStartOfFrameException@Base 3.3.3a
 _ZTV6CigiIO@Base 3.3.3a
 _ZTV9CigiSOFV1@Base 3.3.3a
 _ZTV9CigiSOFV2@Base 3.3.3a
 _ZTV9CigiSOFV3@Base 3.3.3a
